                              1 ;--------------------------------------------------------
                              2 ; File Created by SDCC : free open source ANSI-C Compiler
                              3 ; Version 3.0.0 #6037 (Oct 31 2010) (MINGW32)
                              4 ; This file was generated Fri Nov 18 19:14:50 2011
                              5 ;--------------------------------------------------------
                              6 	.module ProjetoFinal
                              7 	.optsdcc -mmcs51 --model-small
                              8 	
                              9 ;--------------------------------------------------------
                             10 ; Public variables in this module
                             11 ;--------------------------------------------------------
                             12 	.globl _main
                             13 	.globl _int_EX0
                             14 	.globl _mostratemperatura
                             15 	.globl _imprimeTemp
                             16 	.globl _get_temperature
                             17 	.globl _adc_read
                             18 	.globl _mostraDisplay
                             19 	.globl _progAlarm
                             20 	.globl _prog
                             21 	.globl _initTempoReal
                             22 	.globl _line
                             23 	.globl _cleardisplay
                             24 	.globl _progrdisplay
                             25 	.globl _printDisplay
                             26 	.globl _displaydata
                             27 	.globl _displaycommand
                             28 	.globl _delay
                             29 	.globl _Key_ASCII2BIN
                             30 	.globl _EsperaSoltarTecla
                             31 	.globl _NovaTeclaKeyDown
                             32 	.globl _TeclaPressionada
                             33 	.globl _BCDtoStr
                             34 	.globl _desliga_aquecedor
                             35 	.globl _liga_aquecedor
                             36 	.globl _desliga_motor
                             37 	.globl _liga_motor
                             38 	.globl _CY
                             39 	.globl _AC
                             40 	.globl _F0
                             41 	.globl _RS1
                             42 	.globl _RS0
                             43 	.globl _OV
                             44 	.globl _F1
                             45 	.globl _P
                             46 	.globl _PS
                             47 	.globl _PT1
                             48 	.globl _PX1
                             49 	.globl _PT0
                             50 	.globl _PX0
                             51 	.globl _RD
                             52 	.globl _WR
                             53 	.globl _T1
                             54 	.globl _T0
                             55 	.globl _INT1
                             56 	.globl _INT0
                             57 	.globl _TXD
                             58 	.globl _RXD
                             59 	.globl _P3_7
                             60 	.globl _P3_6
                             61 	.globl _P3_5
                             62 	.globl _P3_4
                             63 	.globl _P3_3
                             64 	.globl _P3_2
                             65 	.globl _P3_1
                             66 	.globl _P3_0
                             67 	.globl _EA
                             68 	.globl _ES
                             69 	.globl _ET1
                             70 	.globl _EX1
                             71 	.globl _ET0
                             72 	.globl _EX0
                             73 	.globl _P2_7
                             74 	.globl _P2_6
                             75 	.globl _P2_5
                             76 	.globl _P2_4
                             77 	.globl _P2_3
                             78 	.globl _P2_2
                             79 	.globl _P2_1
                             80 	.globl _P2_0
                             81 	.globl _SM0
                             82 	.globl _SM1
                             83 	.globl _SM2
                             84 	.globl _REN
                             85 	.globl _TB8
                             86 	.globl _RB8
                             87 	.globl _TI
                             88 	.globl _RI
                             89 	.globl _P1_7
                             90 	.globl _P1_6
                             91 	.globl _P1_5
                             92 	.globl _P1_4
                             93 	.globl _P1_3
                             94 	.globl _P1_2
                             95 	.globl _P1_1
                             96 	.globl _P1_0
                             97 	.globl _TF1
                             98 	.globl _TR1
                             99 	.globl _TF0
                            100 	.globl _TR0
                            101 	.globl _IE1
                            102 	.globl _IT1
                            103 	.globl _IE0
                            104 	.globl _IT0
                            105 	.globl _P0_7
                            106 	.globl _P0_6
                            107 	.globl _P0_5
                            108 	.globl _P0_4
                            109 	.globl _P0_3
                            110 	.globl _P0_2
                            111 	.globl _P0_1
                            112 	.globl _P0_0
                            113 	.globl _B
                            114 	.globl _ACC
                            115 	.globl _PSW
                            116 	.globl _IP
                            117 	.globl _P3
                            118 	.globl _IE
                            119 	.globl _P2
                            120 	.globl _SBUF
                            121 	.globl _SCON
                            122 	.globl _P1
                            123 	.globl _TH1
                            124 	.globl _TH0
                            125 	.globl _TL1
                            126 	.globl _TL0
                            127 	.globl _TMOD
                            128 	.globl _TCON
                            129 	.globl _PCON
                            130 	.globl _DPH
                            131 	.globl _DPL
                            132 	.globl _SP
                            133 	.globl _P0
                            134 	.globl _vet_adc_interrupt
                            135 	.globl _vetorInterrEX0
                            136 	.globl _adc_data
                            137 	.globl _userRam
                            138 	.globl _regD
                            139 	.globl _regC
                            140 	.globl _regB
                            141 	.globl _regA
                            142 	.globl _year
                            143 	.globl _mounth
                            144 	.globl _dateOfMounth
                            145 	.globl _dayOfWeek
                            146 	.globl _hoursAlarm
                            147 	.globl _hours
                            148 	.globl _minAlarm
                            149 	.globl _minutes
                            150 	.globl _secAlarm
                            151 	.globl _seconds
                            152 	.globl _rstatus
                            153 	.globl _wcommand
                            154 	.globl _rdata
                            155 	.globl _wdata
                            156 	.globl _indicador1
                            157 	.globl _i
                            158 	.globl _indicador
                            159 	.globl _qtd_quociente
                            160 	.globl _qtd_real
                            161 	.globl _qtd
                            162 	.globl _alarme
                            163 ;--------------------------------------------------------
                            164 ; special function registers
                            165 ;--------------------------------------------------------
                            166 	.area RSEG    (ABS,DATA)
   0000                     167 	.org 0x0000
                    0080    168 _P0	=	0x0080
                    0081    169 _SP	=	0x0081
                    0082    170 _DPL	=	0x0082
                    0083    171 _DPH	=	0x0083
                    0087    172 _PCON	=	0x0087
                    0088    173 _TCON	=	0x0088
                    0089    174 _TMOD	=	0x0089
                    008A    175 _TL0	=	0x008a
                    008B    176 _TL1	=	0x008b
                    008C    177 _TH0	=	0x008c
                    008D    178 _TH1	=	0x008d
                    0090    179 _P1	=	0x0090
                    0098    180 _SCON	=	0x0098
                    0099    181 _SBUF	=	0x0099
                    00A0    182 _P2	=	0x00a0
                    00A8    183 _IE	=	0x00a8
                    00B0    184 _P3	=	0x00b0
                    00B8    185 _IP	=	0x00b8
                    00D0    186 _PSW	=	0x00d0
                    00E0    187 _ACC	=	0x00e0
                    00F0    188 _B	=	0x00f0
                            189 ;--------------------------------------------------------
                            190 ; special function bits
                            191 ;--------------------------------------------------------
                            192 	.area RSEG    (ABS,DATA)
   0000                     193 	.org 0x0000
                    0080    194 _P0_0	=	0x0080
                    0081    195 _P0_1	=	0x0081
                    0082    196 _P0_2	=	0x0082
                    0083    197 _P0_3	=	0x0083
                    0084    198 _P0_4	=	0x0084
                    0085    199 _P0_5	=	0x0085
                    0086    200 _P0_6	=	0x0086
                    0087    201 _P0_7	=	0x0087
                    0088    202 _IT0	=	0x0088
                    0089    203 _IE0	=	0x0089
                    008A    204 _IT1	=	0x008a
                    008B    205 _IE1	=	0x008b
                    008C    206 _TR0	=	0x008c
                    008D    207 _TF0	=	0x008d
                    008E    208 _TR1	=	0x008e
                    008F    209 _TF1	=	0x008f
                    0090    210 _P1_0	=	0x0090
                    0091    211 _P1_1	=	0x0091
                    0092    212 _P1_2	=	0x0092
                    0093    213 _P1_3	=	0x0093
                    0094    214 _P1_4	=	0x0094
                    0095    215 _P1_5	=	0x0095
                    0096    216 _P1_6	=	0x0096
                    0097    217 _P1_7	=	0x0097
                    0098    218 _RI	=	0x0098
                    0099    219 _TI	=	0x0099
                    009A    220 _RB8	=	0x009a
                    009B    221 _TB8	=	0x009b
                    009C    222 _REN	=	0x009c
                    009D    223 _SM2	=	0x009d
                    009E    224 _SM1	=	0x009e
                    009F    225 _SM0	=	0x009f
                    00A0    226 _P2_0	=	0x00a0
                    00A1    227 _P2_1	=	0x00a1
                    00A2    228 _P2_2	=	0x00a2
                    00A3    229 _P2_3	=	0x00a3
                    00A4    230 _P2_4	=	0x00a4
                    00A5    231 _P2_5	=	0x00a5
                    00A6    232 _P2_6	=	0x00a6
                    00A7    233 _P2_7	=	0x00a7
                    00A8    234 _EX0	=	0x00a8
                    00A9    235 _ET0	=	0x00a9
                    00AA    236 _EX1	=	0x00aa
                    00AB    237 _ET1	=	0x00ab
                    00AC    238 _ES	=	0x00ac
                    00AF    239 _EA	=	0x00af
                    00B0    240 _P3_0	=	0x00b0
                    00B1    241 _P3_1	=	0x00b1
                    00B2    242 _P3_2	=	0x00b2
                    00B3    243 _P3_3	=	0x00b3
                    00B4    244 _P3_4	=	0x00b4
                    00B5    245 _P3_5	=	0x00b5
                    00B6    246 _P3_6	=	0x00b6
                    00B7    247 _P3_7	=	0x00b7
                    00B0    248 _RXD	=	0x00b0
                    00B1    249 _TXD	=	0x00b1
                    00B2    250 _INT0	=	0x00b2
                    00B3    251 _INT1	=	0x00b3
                    00B4    252 _T0	=	0x00b4
                    00B5    253 _T1	=	0x00b5
                    00B6    254 _WR	=	0x00b6
                    00B7    255 _RD	=	0x00b7
                    00B8    256 _PX0	=	0x00b8
                    00B9    257 _PT0	=	0x00b9
                    00BA    258 _PX1	=	0x00ba
                    00BB    259 _PT1	=	0x00bb
                    00BC    260 _PS	=	0x00bc
                    00D0    261 _P	=	0x00d0
                    00D1    262 _F1	=	0x00d1
                    00D2    263 _OV	=	0x00d2
                    00D3    264 _RS0	=	0x00d3
                    00D4    265 _RS1	=	0x00d4
                    00D5    266 _F0	=	0x00d5
                    00D6    267 _AC	=	0x00d6
                    00D7    268 _CY	=	0x00d7
                            269 ;--------------------------------------------------------
                            270 ; overlayable register banks
                            271 ;--------------------------------------------------------
                            272 	.area REG_BANK_0	(REL,OVR,DATA)
   0000                     273 	.ds 8
                            274 	.area REG_BANK_2	(REL,OVR,DATA)
   0000                     275 	.ds 8
                            276 ;--------------------------------------------------------
                            277 ; overlayable bit register bank
                            278 ;--------------------------------------------------------
                            279 	.area BIT_BANK	(REL,OVR,DATA)
   0000                     280 bits:
   0000                     281 	.ds 1
                    8000    282 	b0 = bits[0]
                    8100    283 	b1 = bits[1]
                    8200    284 	b2 = bits[2]
                    8300    285 	b3 = bits[3]
                    8400    286 	b4 = bits[4]
                    8500    287 	b5 = bits[5]
                    8600    288 	b6 = bits[6]
                    8700    289 	b7 = bits[7]
                            290 ;--------------------------------------------------------
                            291 ; internal ram data
                            292 ;--------------------------------------------------------
                            293 	.area DSEG    (DATA)
   0000                     294 _alarme::
   0000                     295 	.ds 1
   0001                     296 _qtd::
   0001                     297 	.ds 4
   0005                     298 _qtd_real::
   0005                     299 	.ds 2
   0007                     300 _qtd_quociente::
   0007                     301 	.ds 2
   0009                     302 _indicador::
   0009                     303 	.ds 2
   000B                     304 _i::
   000B                     305 	.ds 2
   000D                     306 _indicador1::
   000D                     307 	.ds 2
   000F                     308 _prog_aux_1_1:
   000F                     309 	.ds 2
   0011                     310 _progAlarm_aux_1_1:
   0011                     311 	.ds 2
   0013                     312 _imprimeTemp_buffer_1_1:
   0013                     313 	.ds 5
                            314 ;--------------------------------------------------------
                            315 ; overlayable items in internal ram 
                            316 ;--------------------------------------------------------
                            317 	.area	OSEG    (OVR,DATA)
   0000                     318 _BCDtoStr_aux_1_1::
   0000                     319 	.ds 3
                            320 	.area	OSEG    (OVR,DATA)
                            321 	.area	OSEG    (OVR,DATA)
                            322 	.area	OSEG    (OVR,DATA)
                            323 ;--------------------------------------------------------
                            324 ; Stack segment in internal ram 
                            325 ;--------------------------------------------------------
                            326 	.area	SSEG	(DATA)
   0000                     327 __start__stack:
   0000                     328 	.ds	1
                            329 
                            330 ;--------------------------------------------------------
                            331 ; indirectly addressable internal ram data
                            332 ;--------------------------------------------------------
                            333 	.area ISEG    (DATA)
                            334 ;--------------------------------------------------------
                            335 ; absolute internal ram data
                            336 ;--------------------------------------------------------
                            337 	.area IABS    (ABS,DATA)
                            338 	.area IABS    (ABS,DATA)
                            339 ;--------------------------------------------------------
                            340 ; bit data
                            341 ;--------------------------------------------------------
                            342 	.area BSEG    (BIT)
                            343 ;--------------------------------------------------------
                            344 ; paged external ram data
                            345 ;--------------------------------------------------------
                            346 	.area PSEG    (PAG,XDATA)
                            347 ;--------------------------------------------------------
                            348 ; external ram data
                            349 ;--------------------------------------------------------
                            350 	.area XSEG    (XDATA)
                    2010    351 _wdata	=	0x2010
                    2030    352 _rdata	=	0x2030
                    2000    353 _wcommand	=	0x2000
                    2020    354 _rstatus	=	0x2020
                    2100    355 _seconds	=	0x2100
                    2101    356 _secAlarm	=	0x2101
                    2102    357 _minutes	=	0x2102
                    2103    358 _minAlarm	=	0x2103
                    2104    359 _hours	=	0x2104
                    2105    360 _hoursAlarm	=	0x2105
                    2106    361 _dayOfWeek	=	0x2106
                    2107    362 _dateOfMounth	=	0x2107
                    2108    363 _mounth	=	0x2108
                    2109    364 _year	=	0x2109
                    210A    365 _regA	=	0x210a
                    210B    366 _regB	=	0x210b
                    210C    367 _regC	=	0x210c
                    210D    368 _regD	=	0x210d
                    210E    369 _userRam	=	0x210e
                    2200    370 _adc_data	=	0x2200
                            371 ;--------------------------------------------------------
                            372 ; absolute external ram data
                            373 ;--------------------------------------------------------
                            374 	.area XABS    (ABS,XDATA)
   FFF0                     375 	.org 0xFFF0
   FFF0                     376 _vetorInterrEX0::
   FFF0                     377 	.ds 3
   FFF6                     378 	.org 0xFFF6
   FFF6                     379 _vet_adc_interrupt::
   FFF6                     380 	.ds 3
                            381 ;--------------------------------------------------------
                            382 ; external initialized ram data
                            383 ;--------------------------------------------------------
                            384 	.area XISEG   (XDATA)
                            385 	.area HOME    (CODE)
                            386 	.area GSINIT0 (CODE)
                            387 	.area GSINIT1 (CODE)
                            388 	.area GSINIT2 (CODE)
                            389 	.area GSINIT3 (CODE)
                            390 	.area GSINIT4 (CODE)
                            391 	.area GSINIT5 (CODE)
                            392 	.area GSINIT  (CODE)
                            393 	.area GSFINAL (CODE)
                            394 	.area CSEG    (CODE)
                            395 ;--------------------------------------------------------
                            396 ; interrupt vector 
                            397 ;--------------------------------------------------------
                            398 	.area HOME    (CODE)
   0000                     399 __interrupt_vect:
   0000 02s00r00            400 	ljmp	__sdcc_gsinit_startup
   0003 02s0Fr42            401 	ljmp	_int_EX0
                            402 ;--------------------------------------------------------
                            403 ; global & static initialisations
                            404 ;--------------------------------------------------------
                            405 	.area HOME    (CODE)
                            406 	.area GSINIT  (CODE)
                            407 	.area GSFINAL (CODE)
                            408 	.area GSINIT  (CODE)
                            409 	.globl __sdcc_gsinit_startup
                            410 	.globl __sdcc_program_startup
                            411 	.globl __start__stack
                            412 	.globl __mcs51_genXINIT
                            413 	.globl __mcs51_genXRAMCLEAR
                            414 	.globl __mcs51_genRAMCLEAR
                            415 ;	ProjetoFinal.c:48: unsigned char alarme = 0;
   0000 75*00 00            416 	mov	_alarme,#0x00
                            417 ;	ProjetoFinal.c:51: unsigned int indicador = 0;
   0003 E4                  418 	clr	a
   0004 F5*09               419 	mov	_indicador,a
   0006 F5*0A               420 	mov	(_indicador + 1),a
                            421 ;	ProjetoFinal.c:53: unsigned int indicador1 = 0;
   0008 E4                  422 	clr	a
   0009 F5*0D               423 	mov	_indicador1,a
   000B F5*0E               424 	mov	(_indicador1 + 1),a
                            425 ;	ProjetoFinal.c:46: unsigned char __far __at @0xFFF0 vetorInterrEX0[3] = {0x02, 0xA0, 0x03};
   000D 90sFFrF0            426 	mov	dptr,#_vetorInterrEX0
   0010 74 02               427 	mov	a,#0x02
   0012 F0                  428 	movx	@dptr,a
   0013 90sFFrF1            429 	mov	dptr,#(_vetorInterrEX0 + 0x0001)
   0016 74 A0               430 	mov	a,#0xA0
   0018 F0                  431 	movx	@dptr,a
   0019 90sFFrF2            432 	mov	dptr,#(_vetorInterrEX0 + 0x0002)
   001C 74 03               433 	mov	a,#0x03
   001E F0                  434 	movx	@dptr,a
                            435 ;	ProjetoFinal.c:75: unsigned char __far __at @0xFFF6 vet_adc_interrupt[] = {0x02, 0xA0, 0x13};
   001F 90sFFrF6            436 	mov	dptr,#_vet_adc_interrupt
   0022 74 02               437 	mov	a,#0x02
   0024 F0                  438 	movx	@dptr,a
   0025 90sFFrF7            439 	mov	dptr,#(_vet_adc_interrupt + 0x0001)
   0028 74 A0               440 	mov	a,#0xA0
   002A F0                  441 	movx	@dptr,a
   002B 90sFFrF8            442 	mov	dptr,#(_vet_adc_interrupt + 0x0002)
   002E 74 13               443 	mov	a,#0x13
   0030 F0                  444 	movx	@dptr,a
                            445 	.area GSFINAL (CODE)
   0000 02s00r06            446 	ljmp	__sdcc_program_startup
                            447 ;--------------------------------------------------------
                            448 ; Home
                            449 ;--------------------------------------------------------
                            450 	.area HOME    (CODE)
                            451 	.area HOME    (CODE)
   0006                     452 __sdcc_program_startup:
   0006 12s12r87            453 	lcall	_main
                            454 ;	return from main will lock up
   0009 80 FE               455 	sjmp .
                            456 ;--------------------------------------------------------
                            457 ; code
                            458 ;--------------------------------------------------------
                            459 	.area CSEG    (CODE)
                            460 ;------------------------------------------------------------
                            461 ;Allocation info for local variables in function 'liga_motor'
                            462 ;------------------------------------------------------------
                            463 ;------------------------------------------------------------
                            464 ;	ProjetoFinal.c:55: void liga_motor (void)
                            465 ;	-----------------------------------------
                            466 ;	 function liga_motor
                            467 ;	-----------------------------------------
   0000                     468 _liga_motor:
                    0002    469 	ar2 = 0x02
                    0003    470 	ar3 = 0x03
                    0004    471 	ar4 = 0x04
                    0005    472 	ar5 = 0x05
                    0006    473 	ar6 = 0x06
                    0007    474 	ar7 = 0x07
                    0000    475 	ar0 = 0x00
                    0001    476 	ar1 = 0x01
                            477 ;	ProjetoFinal.c:57: T0 = 0;
   0000 C2 B4               478 	clr	_T0
   0002 22                  479 	ret
                            480 ;------------------------------------------------------------
                            481 ;Allocation info for local variables in function 'desliga_motor'
                            482 ;------------------------------------------------------------
                            483 ;------------------------------------------------------------
                            484 ;	ProjetoFinal.c:60: void desliga_motor (void)
                            485 ;	-----------------------------------------
                            486 ;	 function desliga_motor
                            487 ;	-----------------------------------------
   0003                     488 _desliga_motor:
                            489 ;	ProjetoFinal.c:62: T0 = 1;
   0003 D2 B4               490 	setb	_T0
   0005 22                  491 	ret
                            492 ;------------------------------------------------------------
                            493 ;Allocation info for local variables in function 'liga_aquecedor'
                            494 ;------------------------------------------------------------
                            495 ;------------------------------------------------------------
                            496 ;	ProjetoFinal.c:65: void liga_aquecedor (void)
                            497 ;	-----------------------------------------
                            498 ;	 function liga_aquecedor
                            499 ;	-----------------------------------------
   0006                     500 _liga_aquecedor:
                            501 ;	ProjetoFinal.c:67: T1 = 0;
   0006 C2 B5               502 	clr	_T1
   0008 22                  503 	ret
                            504 ;------------------------------------------------------------
                            505 ;Allocation info for local variables in function 'desliga_aquecedor'
                            506 ;------------------------------------------------------------
                            507 ;------------------------------------------------------------
                            508 ;	ProjetoFinal.c:70: void desliga_aquecedor (void)
                            509 ;	-----------------------------------------
                            510 ;	 function desliga_aquecedor
                            511 ;	-----------------------------------------
   0009                     512 _desliga_aquecedor:
                            513 ;	ProjetoFinal.c:72: T1 = 1;
   0009 D2 B5               514 	setb	_T1
   000B 22                  515 	ret
                            516 ;------------------------------------------------------------
                            517 ;Allocation info for local variables in function 'BCDtoStr'
                            518 ;------------------------------------------------------------
                            519 ;BCD                       Allocated to registers r2 
                            520 ;aux                       Allocated with name '_BCDtoStr_aux_1_1'
                            521 ;------------------------------------------------------------
                            522 ;	ProjetoFinal.c:78: unsigned char *BCDtoStr(unsigned char BCD){
                            523 ;	-----------------------------------------
                            524 ;	 function BCDtoStr
                            525 ;	-----------------------------------------
   000C                     526 _BCDtoStr:
                            527 ;	ProjetoFinal.c:81: aux[0] = BCD / 0x10; // pega o primeiro digito
   000C E5 82               528 	mov	a,dpl
   000E FA                  529 	mov	r2,a
   000F C4                  530 	swap	a
   0010 54 0F               531 	anl	a,#0x0f
   0012 FB                  532 	mov	r3,a
   0013 8B*00               533 	mov	_BCDtoStr_aux_1_1,r3
                            534 ;	ProjetoFinal.c:82: aux[0] += 0x30;
   0015 74 30               535 	mov	a,#0x30
   0017 2B                  536 	add	a,r3
   0018 F5*00               537 	mov	_BCDtoStr_aux_1_1,a
                            538 ;	ProjetoFinal.c:84: aux[1] = BCD & 0x0F;// pega o digito menos significativo
   001A 53 02 0F            539 	anl	ar2,#0x0F
   001D 8A*01               540 	mov	(_BCDtoStr_aux_1_1 + 0x0001),r2
                            541 ;	ProjetoFinal.c:85: aux[1] += 0x30;
   001F 74 30               542 	mov	a,#0x30
   0021 2A                  543 	add	a,r2
   0022 F5*01               544 	mov	(_BCDtoStr_aux_1_1 + 0x0001),a
                            545 ;	ProjetoFinal.c:87: aux[2] = 0;
   0024 75*02 00            546 	mov	(_BCDtoStr_aux_1_1 + 0x0002),#0x00
                            547 ;	ProjetoFinal.c:89: return aux;
   0027 90s00r00            548 	mov	dptr,#_BCDtoStr_aux_1_1
   002A 75 F0 40            549 	mov	b,#0x40
   002D 22                  550 	ret
                            551 ;------------------------------------------------------------
                            552 ;Allocation info for local variables in function 'TeclaPressionada'
                            553 ;------------------------------------------------------------
                            554 ;------------------------------------------------------------
                            555 ;	ProjetoFinal.c:113: char TeclaPressionada(){
                            556 ;	-----------------------------------------
                            557 ;	 function TeclaPressionada
                            558 ;	-----------------------------------------
   002E                     559 _TeclaPressionada:
                            560 ;	ProjetoFinal.c:114: P1=0xFF;
   002E 75 90 FF            561 	mov	_P1,#0xFF
                            562 ;	ProjetoFinal.c:115: P1_0=0;
   0031 C2 90               563 	clr	_P1_0
                            564 ;	ProjetoFinal.c:116: if(P1_4==0) return TECLA04;
   0033 20 94 04            565 	jb	_P1_4,00102$
   0036 75 82 46            566 	mov	dpl,#0x46
   0039 22                  567 	ret
   003A                     568 00102$:
                            569 ;	ProjetoFinal.c:117: if(P1_5==0) return TECLA05;
   003A 20 95 04            570 	jb	_P1_5,00104$
   003D 75 82 45            571 	mov	dpl,#0x45
   0040 22                  572 	ret
   0041                     573 00104$:
                            574 ;	ProjetoFinal.c:118: if(P1_6==0) return TECLA06;
   0041 20 96 04            575 	jb	_P1_6,00106$
   0044 75 82 44            576 	mov	dpl,#0x44
   0047 22                  577 	ret
   0048                     578 00106$:
                            579 ;	ProjetoFinal.c:119: if(P1_7==0) return TECLA07;
   0048 20 97 04            580 	jb	_P1_7,00108$
   004B 75 82 43            581 	mov	dpl,#0x43
   004E 22                  582 	ret
   004F                     583 00108$:
                            584 ;	ProjetoFinal.c:121: P1=0xFF;
   004F 75 90 FF            585 	mov	_P1,#0xFF
                            586 ;	ProjetoFinal.c:122: P1_1=0;
   0052 C2 91               587 	clr	_P1_1
                            588 ;	ProjetoFinal.c:123: if(P1_4==0) return TECLA14;
   0054 20 94 04            589 	jb	_P1_4,00110$
   0057 75 82 33            590 	mov	dpl,#0x33
   005A 22                  591 	ret
   005B                     592 00110$:
                            593 ;	ProjetoFinal.c:124: if(P1_5==0) return TECLA15;
   005B 20 95 04            594 	jb	_P1_5,00112$
   005E 75 82 32            595 	mov	dpl,#0x32
   0061 22                  596 	ret
   0062                     597 00112$:
                            598 ;	ProjetoFinal.c:125: if(P1_6==0) return TECLA16;
   0062 20 96 04            599 	jb	_P1_6,00114$
   0065 75 82 31            600 	mov	dpl,#0x31
   0068 22                  601 	ret
   0069                     602 00114$:
                            603 ;	ProjetoFinal.c:126: if(P1_7==0) return TECLA17;
   0069 20 97 04            604 	jb	_P1_7,00116$
   006C 75 82 30            605 	mov	dpl,#0x30
   006F 22                  606 	ret
   0070                     607 00116$:
                            608 ;	ProjetoFinal.c:128: P1=0xFF;
   0070 75 90 FF            609 	mov	_P1,#0xFF
                            610 ;	ProjetoFinal.c:129: P1_2=0;
   0073 C2 92               611 	clr	_P1_2
                            612 ;	ProjetoFinal.c:130: if(P1_4==0) return TECLA24;
   0075 20 94 04            613 	jb	_P1_4,00118$
   0078 75 82 42            614 	mov	dpl,#0x42
   007B 22                  615 	ret
   007C                     616 00118$:
                            617 ;	ProjetoFinal.c:131: if(P1_5==0) return TECLA25;
   007C 20 95 04            618 	jb	_P1_5,00120$
   007F 75 82 41            619 	mov	dpl,#0x41
   0082 22                  620 	ret
   0083                     621 00120$:
                            622 ;	ProjetoFinal.c:132: if(P1_6==0) return TECLA26;
   0083 20 96 04            623 	jb	_P1_6,00122$
   0086 75 82 39            624 	mov	dpl,#0x39
   0089 22                  625 	ret
   008A                     626 00122$:
                            627 ;	ProjetoFinal.c:133: if(P1_7==0) return TECLA27;
   008A 20 97 04            628 	jb	_P1_7,00124$
   008D 75 82 38            629 	mov	dpl,#0x38
   0090 22                  630 	ret
   0091                     631 00124$:
                            632 ;	ProjetoFinal.c:135: P1=0xFF;
   0091 75 90 FF            633 	mov	_P1,#0xFF
                            634 ;	ProjetoFinal.c:136: P1_3=0;
   0094 C2 93               635 	clr	_P1_3
                            636 ;	ProjetoFinal.c:137: if(P1_4==0) return TECLA34;
   0096 20 94 04            637 	jb	_P1_4,00126$
   0099 75 82 37            638 	mov	dpl,#0x37
   009C 22                  639 	ret
   009D                     640 00126$:
                            641 ;	ProjetoFinal.c:138: if(P1_5==0) return TECLA35;
   009D 20 95 04            642 	jb	_P1_5,00128$
   00A0 75 82 36            643 	mov	dpl,#0x36
   00A3 22                  644 	ret
   00A4                     645 00128$:
                            646 ;	ProjetoFinal.c:139: if(P1_6==0) return TECLA36;
   00A4 20 96 04            647 	jb	_P1_6,00130$
   00A7 75 82 35            648 	mov	dpl,#0x35
   00AA 22                  649 	ret
   00AB                     650 00130$:
                            651 ;	ProjetoFinal.c:140: if(P1_7==0) return TECLA37;
   00AB 20 97 04            652 	jb	_P1_7,00132$
   00AE 75 82 34            653 	mov	dpl,#0x34
                            654 ;	ProjetoFinal.c:142: return 0; /* Nada foi pressionado */
   00B1 22                  655 	ret
   00B2                     656 00132$:
   00B2 75 82 00            657 	mov	dpl,#0x00
   00B5 22                  658 	ret
                            659 ;------------------------------------------------------------
                            660 ;Allocation info for local variables in function 'NovaTeclaKeyDown'
                            661 ;------------------------------------------------------------
                            662 ;tmp                       Allocated to registers r2 
                            663 ;tmp2                      Allocated to registers r5 
                            664 ;i                         Allocated to registers r3 r4 
                            665 ;------------------------------------------------------------
                            666 ;	ProjetoFinal.c:145: char NovaTeclaKeyDown(){
                            667 ;	-----------------------------------------
                            668 ;	 function NovaTeclaKeyDown
                            669 ;	-----------------------------------------
   00B6                     670 _NovaTeclaKeyDown:
                            671 ;	ProjetoFinal.c:148: tmp = TeclaPressionada();
   00B6 12s00r2E            672 	lcall	_TeclaPressionada
   00B9 AA 82               673 	mov	r2,dpl
                            674 ;	ProjetoFinal.c:150: for(i=0;i<DEBOUNCE_REPEATS;i++){
   00BB 7B 00               675 	mov	r3,#0x00
   00BD 7C 00               676 	mov	r4,#0x00
   00BF                     677 00104$:
   00BF C3                  678 	clr	c
   00C0 EB                  679 	mov	a,r3
   00C1 94 B8               680 	subb	a,#0xB8
   00C3 EC                  681 	mov	a,r4
   00C4 64 80               682 	xrl	a,#0x80
   00C6 94 8B               683 	subb	a,#0x8b
   00C8 50 25               684 	jnc	00107$
                            685 ;	ProjetoFinal.c:151: tmp2 = TeclaPressionada();
   00CA C0 02               686 	push	ar2
   00CC C0 03               687 	push	ar3
   00CE C0 04               688 	push	ar4
   00D0 12s00r2E            689 	lcall	_TeclaPressionada
   00D3 AD 82               690 	mov	r5,dpl
   00D5 D0 04               691 	pop	ar4
   00D7 D0 03               692 	pop	ar3
   00D9 D0 02               693 	pop	ar2
                            694 ;	ProjetoFinal.c:152: if((tmp != tmp2) || (tmp2 == 0)){
   00DB EA                  695 	mov	a,r2
   00DC B5 05 03            696 	cjne	a,ar5,00101$
   00DF ED                  697 	mov	a,r5
   00E0 70 06               698 	jnz	00106$
   00E2                     699 00101$:
                            700 ;	ProjetoFinal.c:153: i = -1;      /* Recomeça a varredura, não passou no teste do debounce */
   00E2 7B FF               701 	mov	r3,#0xFF
   00E4 7C FF               702 	mov	r4,#0xFF
                            703 ;	ProjetoFinal.c:154: tmp = tmp2;
   00E6 8D 02               704 	mov	ar2,r5
   00E8                     705 00106$:
                            706 ;	ProjetoFinal.c:150: for(i=0;i<DEBOUNCE_REPEATS;i++){
   00E8 0B                  707 	inc	r3
   00E9 BB 00 D3            708 	cjne	r3,#0x00,00104$
   00EC 0C                  709 	inc	r4
   00ED 80 D0               710 	sjmp	00104$
   00EF                     711 00107$:
                            712 ;	ProjetoFinal.c:157: return tmp;
   00EF 8A 82               713 	mov	dpl,r2
   00F1 22                  714 	ret
                            715 ;------------------------------------------------------------
                            716 ;Allocation info for local variables in function 'EsperaSoltarTecla'
                            717 ;------------------------------------------------------------
                            718 ;i                         Allocated to registers r2 r3 
                            719 ;------------------------------------------------------------
                            720 ;	ProjetoFinal.c:160: void EsperaSoltarTecla(){
                            721 ;	-----------------------------------------
                            722 ;	 function EsperaSoltarTecla
                            723 ;	-----------------------------------------
   00F2                     724 _EsperaSoltarTecla:
                            725 ;	ProjetoFinal.c:163: for(i=0;i<DEBOUNCE_REPEATS;i++)
   00F2 7A 00               726 	mov	r2,#0x00
   00F4 7B 00               727 	mov	r3,#0x00
   00F6                     728 00103$:
   00F6 C3                  729 	clr	c
   00F7 EA                  730 	mov	a,r2
   00F8 94 B8               731 	subb	a,#0xB8
   00FA EB                  732 	mov	a,r3
   00FB 64 80               733 	xrl	a,#0x80
   00FD 94 8B               734 	subb	a,#0x8b
   00FF 50 1A               735 	jnc	00107$
                            736 ;	ProjetoFinal.c:164: if(TeclaPressionada()!=0)
   0101 C0 02               737 	push	ar2
   0103 C0 03               738 	push	ar3
   0105 12s00r2E            739 	lcall	_TeclaPressionada
   0108 E5 82               740 	mov	a,dpl
   010A D0 03               741 	pop	ar3
   010C D0 02               742 	pop	ar2
   010E 60 04               743 	jz	00105$
                            744 ;	ProjetoFinal.c:165: i = -1;      /* Recomeça a varredura, não passou no teste do debounce */
   0110 7A FF               745 	mov	r2,#0xFF
   0112 7B FF               746 	mov	r3,#0xFF
   0114                     747 00105$:
                            748 ;	ProjetoFinal.c:163: for(i=0;i<DEBOUNCE_REPEATS;i++)
   0114 0A                  749 	inc	r2
   0115 BA 00 DE            750 	cjne	r2,#0x00,00103$
   0118 0B                  751 	inc	r3
   0119 80 DB               752 	sjmp	00103$
   011B                     753 00107$:
   011B 22                  754 	ret
                            755 ;------------------------------------------------------------
                            756 ;Allocation info for local variables in function 'Key_ASCII2BIN'
                            757 ;------------------------------------------------------------
                            758 ;tecla                     Allocated to registers r2 
                            759 ;------------------------------------------------------------
                            760 ;	ProjetoFinal.c:168: char Key_ASCII2BIN(char tecla){
                            761 ;	-----------------------------------------
                            762 ;	 function Key_ASCII2BIN
                            763 ;	-----------------------------------------
   011C                     764 _Key_ASCII2BIN:
   011C AA 82               765 	mov	r2,dpl
                            766 ;	ProjetoFinal.c:169: if(tecla > '9')
   011E C3                  767 	clr	c
   011F 74 B9               768 	mov	a,#(0x39 ^ 0x80)
   0121 8A F0               769 	mov	b,r2
   0123 63 F0 80            770 	xrl	b,#0x80
   0126 95 F0               771 	subb	a,b
   0128 50 06               772 	jnc	00102$
                            773 ;	ProjetoFinal.c:170: return tecla - 0x37;
   012A EA                  774 	mov	a,r2
   012B 24 C9               775 	add	a,#0xc9
   012D F5 82               776 	mov	dpl,a
   012F 22                  777 	ret
   0130                     778 00102$:
                            779 ;	ProjetoFinal.c:171: return tecla - 0x30;
   0130 EA                  780 	mov	a,r2
   0131 24 D0               781 	add	a,#0xd0
   0133 F5 82               782 	mov	dpl,a
   0135 22                  783 	ret
                            784 ;------------------------------------------------------------
                            785 ;Allocation info for local variables in function 'delay'
                            786 ;------------------------------------------------------------
                            787 ;tempo                     Allocated to registers r2 r3 
                            788 ;i                         Allocated to registers r2 r3 
                            789 ;j                         Allocated to registers r4 r5 
                            790 ;------------------------------------------------------------
                            791 ;	ProjetoFinal.c:183: void delay (int tempo) {
                            792 ;	-----------------------------------------
                            793 ;	 function delay
                            794 ;	-----------------------------------------
   0136                     795 _delay:
   0136 AA 82               796 	mov	r2,dpl
   0138 AB 83               797 	mov	r3,dph
                            798 ;	ProjetoFinal.c:185: for (i=tempo;i>0;i--) {
   013A                     799 00105$:
   013A C3                  800 	clr	c
   013B E4                  801 	clr	a
   013C 9A                  802 	subb	a,r2
   013D 74 80               803 	mov	a,#(0x00 ^ 0x80)
   013F 8B F0               804 	mov	b,r3
   0141 63 F0 80            805 	xrl	b,#0x80
   0144 95 F0               806 	subb	a,b
   0146 50 20               807 	jnc	00109$
                            808 ;	ProjetoFinal.c:186: for (j=50;j>0;j--) {
   0148 7C 32               809 	mov	r4,#0x32
   014A 7D 00               810 	mov	r5,#0x00
   014C                     811 00101$:
   014C C3                  812 	clr	c
   014D E4                  813 	clr	a
   014E 9C                  814 	subb	a,r4
   014F 74 80               815 	mov	a,#(0x00 ^ 0x80)
   0151 8D F0               816 	mov	b,r5
   0153 63 F0 80            817 	xrl	b,#0x80
   0156 95 F0               818 	subb	a,b
   0158 50 07               819 	jnc	00107$
   015A 1C                  820 	dec	r4
   015B BC FF EE            821 	cjne	r4,#0xff,00101$
   015E 1D                  822 	dec	r5
   015F 80 EB               823 	sjmp	00101$
   0161                     824 00107$:
                            825 ;	ProjetoFinal.c:185: for (i=tempo;i>0;i--) {
   0161 1A                  826 	dec	r2
   0162 BA FF D5            827 	cjne	r2,#0xff,00105$
   0165 1B                  828 	dec	r3
   0166 80 D2               829 	sjmp	00105$
   0168                     830 00109$:
   0168 22                  831 	ret
                            832 ;------------------------------------------------------------
                            833 ;Allocation info for local variables in function 'displaycommand'
                            834 ;------------------------------------------------------------
                            835 ;cmd                       Allocated to registers r2 r3 
                            836 ;------------------------------------------------------------
                            837 ;	ProjetoFinal.c:200: void displaycommand (int cmd) {
                            838 ;	-----------------------------------------
                            839 ;	 function displaycommand
                            840 ;	-----------------------------------------
   0169                     841 _displaycommand:
   0169 AA 82               842 	mov	r2,dpl
   016B AB 83               843 	mov	r3,dph
                            844 ;	ProjetoFinal.c:201: delay (2);
   016D 90 00 02            845 	mov	dptr,#0x0002
   0170 C0 02               846 	push	ar2
   0172 C0 03               847 	push	ar3
   0174 12s01r36            848 	lcall	_delay
   0177 D0 03               849 	pop	ar3
   0179 D0 02               850 	pop	ar2
                            851 ;	ProjetoFinal.c:202: wcommand = cmd;
   017B 90 20 00            852 	mov	dptr,#_wcommand
   017E EA                  853 	mov	a,r2
   017F F0                  854 	movx	@dptr,a
   0180 22                  855 	ret
                            856 ;------------------------------------------------------------
                            857 ;Allocation info for local variables in function 'displaydata'
                            858 ;------------------------------------------------------------
                            859 ;car                       Allocated to registers r2 r3 
                            860 ;------------------------------------------------------------
                            861 ;	ProjetoFinal.c:214: void displaydata (int car){
                            862 ;	-----------------------------------------
                            863 ;	 function displaydata
                            864 ;	-----------------------------------------
   0181                     865 _displaydata:
   0181 AA 82               866 	mov	r2,dpl
   0183 AB 83               867 	mov	r3,dph
                            868 ;	ProjetoFinal.c:221: __endasm;
                            869 	
   0185                     870 	 BUSY:
   0185 90 20 20            871 	MOV DPTR,#_rstatus
   0188 E0                  872 	  MOVX A,@DPTR
   0189 54 80               873 	  ANL A,#0x80
   018B 70 F8               874 	  JNZ BUSY
                            875 	 
                            876 ;	ProjetoFinal.c:222: wdata = car;
   018D 90 20 10            877 	mov	dptr,#_wdata
   0190 EA                  878 	mov	a,r2
   0191 F0                  879 	movx	@dptr,a
   0192 22                  880 	ret
                            881 ;------------------------------------------------------------
                            882 ;Allocation info for local variables in function 'printDisplay'
                            883 ;------------------------------------------------------------
                            884 ;str                       Allocated to registers r2 r3 r4 
                            885 ;aux                       Allocated to registers r2 r3 r4 
                            886 ;------------------------------------------------------------
                            887 ;	ProjetoFinal.c:229: void printDisplay(unsigned char *str){
                            888 ;	-----------------------------------------
                            889 ;	 function printDisplay
                            890 ;	-----------------------------------------
   0193                     891 _printDisplay:
   0193 AA 82               892 	mov	r2,dpl
   0195 AB 83               893 	mov	r3,dph
   0197 AC F0               894 	mov	r4,b
                            895 ;	ProjetoFinal.c:231: while ((*aux)!=0x00) {
   0199                     896 00101$:
   0199 8A 82               897 	mov	dpl,r2
   019B 8B 83               898 	mov	dph,r3
   019D 8C F0               899 	mov	b,r4
   019F 12s00r00            900 	lcall	__gptrget
   01A2 FD                  901 	mov	r5,a
   01A3 60 1C               902 	jz	00104$
                            903 ;	ProjetoFinal.c:232: displaydata(*aux);
   01A5 7E 00               904 	mov	r6,#0x00
   01A7 8D 82               905 	mov	dpl,r5
   01A9 8E 83               906 	mov	dph,r6
   01AB C0 02               907 	push	ar2
   01AD C0 03               908 	push	ar3
   01AF C0 04               909 	push	ar4
   01B1 12s01r81            910 	lcall	_displaydata
   01B4 D0 04               911 	pop	ar4
   01B6 D0 03               912 	pop	ar3
   01B8 D0 02               913 	pop	ar2
                            914 ;	ProjetoFinal.c:233: aux++;
   01BA 0A                  915 	inc	r2
   01BB BA 00 DB            916 	cjne	r2,#0x00,00101$
   01BE 0B                  917 	inc	r3
   01BF 80 D8               918 	sjmp	00101$
   01C1                     919 00104$:
   01C1 22                  920 	ret
                            921 ;------------------------------------------------------------
                            922 ;Allocation info for local variables in function 'progrdisplay'
                            923 ;------------------------------------------------------------
                            924 ;------------------------------------------------------------
                            925 ;	ProjetoFinal.c:246: void progrdisplay (void){
                            926 ;	-----------------------------------------
                            927 ;	 function progrdisplay
                            928 ;	-----------------------------------------
   01C2                     929 _progrdisplay:
                            930 ;	ProjetoFinal.c:247: displaycommand (0x38); /* 2 linhas 5x7 */
   01C2 90 00 38            931 	mov	dptr,#0x0038
   01C5 12s01r69            932 	lcall	_displaycommand
                            933 ;	ProjetoFinal.c:248: displaycommand (0x0C); /* sem cursor */
   01C8 90 00 0C            934 	mov	dptr,#0x000C
   01CB 12s01r69            935 	lcall	_displaycommand
                            936 ;	ProjetoFinal.c:249: displaycommand (0x06); /* escreve deslocando para a direita */
   01CE 90 00 06            937 	mov	dptr,#0x0006
   01D1 02s01r69            938 	ljmp	_displaycommand
                            939 ;------------------------------------------------------------
                            940 ;Allocation info for local variables in function 'cleardisplay'
                            941 ;------------------------------------------------------------
                            942 ;------------------------------------------------------------
                            943 ;	ProjetoFinal.c:261: void cleardisplay (void) {
                            944 ;	-----------------------------------------
                            945 ;	 function cleardisplay
                            946 ;	-----------------------------------------
   01D4                     947 _cleardisplay:
                            948 ;	ProjetoFinal.c:262: displaycommand (0x01);
   01D4 90 00 01            949 	mov	dptr,#0x0001
   01D7 02s01r69            950 	ljmp	_displaycommand
                            951 ;------------------------------------------------------------
                            952 ;Allocation info for local variables in function 'line'
                            953 ;------------------------------------------------------------
                            954 ;lin                       Allocated to registers r2 r3 
                            955 ;------------------------------------------------------------
                            956 ;	ProjetoFinal.c:275: void line (int lin) { /* seleciona a linha do display */
                            957 ;	-----------------------------------------
                            958 ;	 function line
                            959 ;	-----------------------------------------
   01DA                     960 _line:
   01DA AA 82               961 	mov	r2,dpl
   01DC AB 83               962 	mov	r3,dph
                            963 ;	ProjetoFinal.c:276: displaycommand (0x80);
   01DE 90 00 80            964 	mov	dptr,#0x0080
   01E1 C0 02               965 	push	ar2
   01E3 C0 03               966 	push	ar3
   01E5 12s01r69            967 	lcall	_displaycommand
   01E8 D0 03               968 	pop	ar3
   01EA D0 02               969 	pop	ar2
                            970 ;	ProjetoFinal.c:277: if (lin==1) displaycommand (0x80);  /*desloca cursor 1a.lin e 1a.col */
   01EC BA 01 09            971 	cjne	r2,#0x01,00102$
   01EF BB 00 06            972 	cjne	r3,#0x00,00102$
   01F2 90 00 80            973 	mov	dptr,#0x0080
   01F5 02s01r69            974 	ljmp	_displaycommand
   01F8                     975 00102$:
                            976 ;	ProjetoFinal.c:278: else displaycommand (0xC0);  /*desloca cursor 2a.lin e 1a.col */
   01F8 90 00 C0            977 	mov	dptr,#0x00C0
   01FB 02s01r69            978 	ljmp	_displaycommand
                            979 ;------------------------------------------------------------
                            980 ;Allocation info for local variables in function 'initTempoReal'
                            981 ;------------------------------------------------------------
                            982 ;------------------------------------------------------------
                            983 ;	ProjetoFinal.c:284: void initTempoReal ()
                            984 ;	-----------------------------------------
                            985 ;	 function initTempoReal
                            986 ;	-----------------------------------------
   01FE                     987 _initTempoReal:
                            988 ;	ProjetoFinal.c:289: regB = 0x92;
   01FE 90 21 0B            989 	mov	dptr,#_regB
   0201 74 92               990 	mov	a,#0x92
   0203 F0                  991 	movx	@dptr,a
                            992 ;	ProjetoFinal.c:290: regA = 0x20;
   0204 90 21 0A            993 	mov	dptr,#_regA
   0207 74 20               994 	mov	a,#0x20
   0209 F0                  995 	movx	@dptr,a
                            996 ;	ProjetoFinal.c:291: regB &= 0x7F;
   020A 90 21 0B            997 	mov	dptr,#_regB
   020D E0                  998 	movx	a,@dptr
   020E 54 7F               999 	anl	a,#0x7F
   0210 F0                 1000 	movx	@dptr,a
   0211 22                 1001 	ret
                           1002 ;------------------------------------------------------------
                           1003 ;Allocation info for local variables in function 'prog'
                           1004 ;------------------------------------------------------------
                           1005 ;auxIE                     Allocated to registers r2 
                           1006 ;aux                       Allocated with name '_prog_aux_1_1'
                           1007 ;tecla                     Allocated to registers r3 
                           1008 ;------------------------------------------------------------
                           1009 ;	ProjetoFinal.c:295: void prog()
                           1010 ;	-----------------------------------------
                           1011 ;	 function prog
                           1012 ;	-----------------------------------------
   0212                    1013 _prog:
                           1014 ;	ProjetoFinal.c:298: auxIE = IE;
   0212 AA A8              1015 	mov	r2,_IE
                           1016 ;	ProjetoFinal.c:299: IE &= 0xEF;
   0214 53 A8 EF           1017 	anl	_IE,#0xEF
                           1018 ;	ProjetoFinal.c:300: regB |= 0x80;
   0217 90 21 0B           1019 	mov	dptr,#_regB
   021A E0                 1020 	movx	a,@dptr
   021B FB                 1021 	mov	r3,a
   021C 44 80              1022 	orl	a,#0x80
   021E F0                 1023 	movx	@dptr,a
                           1024 ;	ProjetoFinal.c:302: INICIO_PROG_ANO:
   021F                    1025 00101$:
                           1026 ;	ProjetoFinal.c:304: cleardisplay();
   021F C0 02              1027 	push	ar2
   0221 12s01rD4           1028 	lcall	_cleardisplay
                           1029 ;	ProjetoFinal.c:305: printDisplay("Ano(00-99): ");
   0224 90s00r00           1030 	mov	dptr,#__str_0
   0227 75 F0 80           1031 	mov	b,#0x80
   022A 12s01r93           1032 	lcall	_printDisplay
                           1033 ;	ProjetoFinal.c:306: aux[0] = Key_ASCII2BIN(NovaTeclaKeyDown());
   022D 12s00rB6           1034 	lcall	_NovaTeclaKeyDown
   0230 12s01r1C           1035 	lcall	_Key_ASCII2BIN
   0233 E5 82              1036 	mov	a,dpl
   0235 D0 02              1037 	pop	ar2
   0237 F5*0F              1038 	mov	_prog_aux_1_1,a
                           1039 ;	ProjetoFinal.c:307: while ( (aux[0] < 0 || aux[0] > 9) && aux[0] != 0xF )
   0239                    1040 00104$:
   0239 E5*0F              1041 	mov	a,_prog_aux_1_1
   023B 20 E7 0D           1042 	jb	acc.7,00103$
   023E C3                 1043 	clr	c
   023F 74 89              1044 	mov	a,#(0x09 ^ 0x80)
   0241 85*0F F0           1045 	mov	b,_prog_aux_1_1
   0244 63 F0 80           1046 	xrl	b,#0x80
   0247 95 F0              1047 	subb	a,b
   0249 50 17              1048 	jnc	00106$
   024B                    1049 00103$:
   024B 74 0F              1050 	mov	a,#0x0F
   024D B5*0F 02           1051 	cjne	a,_prog_aux_1_1,00364$
   0250 80 10              1052 	sjmp	00106$
   0252                    1053 00364$:
                           1054 ;	ProjetoFinal.c:308: aux[0] = Key_ASCII2BIN(NovaTeclaKeyDown());
   0252 C0 02              1055 	push	ar2
   0254 12s00rB6           1056 	lcall	_NovaTeclaKeyDown
   0257 12s01r1C           1057 	lcall	_Key_ASCII2BIN
   025A E5 82              1058 	mov	a,dpl
   025C D0 02              1059 	pop	ar2
   025E F5*0F              1060 	mov	_prog_aux_1_1,a
   0260 80 D7              1061 	sjmp	00104$
   0262                    1062 00106$:
                           1063 ;	ProjetoFinal.c:309: if (aux[0] == 0xF)
   0262 74 0F              1064 	mov	a,#0x0F
   0264 B5*0F 02           1065 	cjne	a,_prog_aux_1_1,00365$
   0267 80 B6              1066 	sjmp	00101$
   0269                    1067 00365$:
                           1068 ;	ProjetoFinal.c:312: displaydata(aux[0]+0x30);
   0269 E5*0F              1069 	mov	a,_prog_aux_1_1
   026B FB                 1070 	mov	r3,a
   026C 33                 1071 	rlc	a
   026D 95 E0              1072 	subb	a,acc
   026F FC                 1073 	mov	r4,a
   0270 74 30              1074 	mov	a,#0x30
   0272 2B                 1075 	add	a,r3
   0273 F5 82              1076 	mov	dpl,a
   0275 E4                 1077 	clr	a
   0276 3C                 1078 	addc	a,r4
   0277 F5 83              1079 	mov	dph,a
   0279 C0 02              1080 	push	ar2
   027B 12s01r81           1081 	lcall	_displaydata
                           1082 ;	ProjetoFinal.c:313: aux[1] = Key_ASCII2BIN(NovaTeclaKeyDown());
   027E 12s00rB6           1083 	lcall	_NovaTeclaKeyDown
   0281 12s01r1C           1084 	lcall	_Key_ASCII2BIN
   0284 E5 82              1085 	mov	a,dpl
   0286 D0 02              1086 	pop	ar2
   0288 F5*10              1087 	mov	(_prog_aux_1_1 + 0x0001),a
                           1088 ;	ProjetoFinal.c:314: while ( (aux[1] < 0 || aux[1] > 9) && aux[1] != 0xF)
   028A                    1089 00111$:
   028A E5*10              1090 	mov	a,(_prog_aux_1_1 + 0x0001)
   028C 20 E7 0D           1091 	jb	acc.7,00110$
   028F C3                 1092 	clr	c
   0290 74 89              1093 	mov	a,#(0x09 ^ 0x80)
   0292 85*10 F0           1094 	mov	b,(_prog_aux_1_1 + 0x0001)
   0295 63 F0 80           1095 	xrl	b,#0x80
   0298 95 F0              1096 	subb	a,b
   029A 50 17              1097 	jnc	00113$
   029C                    1098 00110$:
   029C 74 0F              1099 	mov	a,#0x0F
   029E B5*10 02           1100 	cjne	a,(_prog_aux_1_1 + 0x0001),00368$
   02A1 80 10              1101 	sjmp	00113$
   02A3                    1102 00368$:
                           1103 ;	ProjetoFinal.c:315: aux[1] = Key_ASCII2BIN(NovaTeclaKeyDown());
   02A3 C0 02              1104 	push	ar2
   02A5 12s00rB6           1105 	lcall	_NovaTeclaKeyDown
   02A8 12s01r1C           1106 	lcall	_Key_ASCII2BIN
   02AB E5 82              1107 	mov	a,dpl
   02AD D0 02              1108 	pop	ar2
   02AF F5*10              1109 	mov	(_prog_aux_1_1 + 0x0001),a
   02B1 80 D7              1110 	sjmp	00111$
   02B3                    1111 00113$:
                           1112 ;	ProjetoFinal.c:316: if (aux[1] == 0xF)
   02B3 74 0F              1113 	mov	a,#0x0F
   02B5 B5*10 03           1114 	cjne	a,(_prog_aux_1_1 + 0x0001),00369$
   02B8 02s02r1F           1115 	ljmp	00101$
   02BB                    1116 00369$:
                           1117 ;	ProjetoFinal.c:319: displaydata(aux[1]+0x30);
   02BB AB*10              1118 	mov	r3,(_prog_aux_1_1 + 0x0001)
   02BD E5*10              1119 	mov	a,(_prog_aux_1_1 + 0x0001)
   02BF 33                 1120 	rlc	a
   02C0 95 E0              1121 	subb	a,acc
   02C2 FC                 1122 	mov	r4,a
   02C3 74 30              1123 	mov	a,#0x30
   02C5 2B                 1124 	add	a,r3
   02C6 F5 82              1125 	mov	dpl,a
   02C8 E4                 1126 	clr	a
   02C9 3C                 1127 	addc	a,r4
   02CA F5 83              1128 	mov	dph,a
   02CC C0 02              1129 	push	ar2
   02CE 12s01r81           1130 	lcall	_displaydata
                           1131 ;	ProjetoFinal.c:321: tecla = Key_ASCII2BIN(NovaTeclaKeyDown());
   02D1 12s00rB6           1132 	lcall	_NovaTeclaKeyDown
   02D4 12s01r1C           1133 	lcall	_Key_ASCII2BIN
   02D7 AB 82              1134 	mov	r3,dpl
   02D9 D0 02              1135 	pop	ar2
                           1136 ;	ProjetoFinal.c:322: while (tecla != 0xE && tecla != 0xF)
   02DB                    1137 00117$:
   02DB BB 0E 02           1138 	cjne	r3,#0x0E,00370$
   02DE 80 13              1139 	sjmp	00119$
   02E0                    1140 00370$:
   02E0 BB 0F 02           1141 	cjne	r3,#0x0F,00371$
   02E3 80 0E              1142 	sjmp	00119$
   02E5                    1143 00371$:
                           1144 ;	ProjetoFinal.c:323: tecla = Key_ASCII2BIN(NovaTeclaKeyDown());
   02E5 C0 02              1145 	push	ar2
   02E7 12s00rB6           1146 	lcall	_NovaTeclaKeyDown
   02EA 12s01r1C           1147 	lcall	_Key_ASCII2BIN
   02ED AB 82              1148 	mov	r3,dpl
   02EF D0 02              1149 	pop	ar2
   02F1 80 E8              1150 	sjmp	00117$
   02F3                    1151 00119$:
                           1152 ;	ProjetoFinal.c:324: if (tecla == 0xF)
   02F3 BB 0F 03           1153 	cjne	r3,#0x0F,00372$
   02F6 02s02r1F           1154 	ljmp	00101$
   02F9                    1155 00372$:
                           1156 ;	ProjetoFinal.c:326: if (tecla == 0xE)
   02F9 BB 0E 0D           1157 	cjne	r3,#0x0E,00124$
                           1158 ;	ProjetoFinal.c:327: year = aux[0]*16 + aux[1];
   02FC E5*0F              1159 	mov	a,_prog_aux_1_1
   02FE C4                 1160 	swap	a
   02FF 54 F0              1161 	anl	a,#0xf0
   0301 FC                 1162 	mov	r4,a
   0302 90 21 09           1163 	mov	dptr,#_year
   0305 E5*10              1164 	mov	a,(_prog_aux_1_1 + 0x0001)
   0307 2C                 1165 	add	a,r4
   0308 F0                 1166 	movx	@dptr,a
                           1167 ;	ProjetoFinal.c:329: INICIO_PROG_MES:
   0309                    1168 00124$:
                           1169 ;	ProjetoFinal.c:331: cleardisplay();
   0309 C0 02              1170 	push	ar2
   030B 12s01rD4           1171 	lcall	_cleardisplay
                           1172 ;	ProjetoFinal.c:332: printDisplay("Mes(00-12): ");
   030E 90s00r0D           1173 	mov	dptr,#__str_1
   0311 75 F0 80           1174 	mov	b,#0x80
   0314 12s01r93           1175 	lcall	_printDisplay
                           1176 ;	ProjetoFinal.c:333: aux[0] = Key_ASCII2BIN(NovaTeclaKeyDown());
   0317 12s00rB6           1177 	lcall	_NovaTeclaKeyDown
   031A 12s01r1C           1178 	lcall	_Key_ASCII2BIN
   031D E5 82              1179 	mov	a,dpl
   031F D0 02              1180 	pop	ar2
   0321 F5*0F              1181 	mov	_prog_aux_1_1,a
                           1182 ;	ProjetoFinal.c:334: while ( (aux[0] < 0 || aux[0] > 9) && aux[0] != 0xF )
   0323                    1183 00127$:
   0323 E5*0F              1184 	mov	a,_prog_aux_1_1
   0325 20 E7 0D           1185 	jb	acc.7,00126$
   0328 C3                 1186 	clr	c
   0329 74 89              1187 	mov	a,#(0x09 ^ 0x80)
   032B 85*0F F0           1188 	mov	b,_prog_aux_1_1
   032E 63 F0 80           1189 	xrl	b,#0x80
   0331 95 F0              1190 	subb	a,b
   0333 50 17              1191 	jnc	00129$
   0335                    1192 00126$:
   0335 74 0F              1193 	mov	a,#0x0F
   0337 B5*0F 02           1194 	cjne	a,_prog_aux_1_1,00377$
   033A 80 10              1195 	sjmp	00129$
   033C                    1196 00377$:
                           1197 ;	ProjetoFinal.c:335: aux[0] = Key_ASCII2BIN(NovaTeclaKeyDown());
   033C C0 02              1198 	push	ar2
   033E 12s00rB6           1199 	lcall	_NovaTeclaKeyDown
   0341 12s01r1C           1200 	lcall	_Key_ASCII2BIN
   0344 E5 82              1201 	mov	a,dpl
   0346 D0 02              1202 	pop	ar2
   0348 F5*0F              1203 	mov	_prog_aux_1_1,a
   034A 80 D7              1204 	sjmp	00127$
   034C                    1205 00129$:
                           1206 ;	ProjetoFinal.c:336: if (aux[0] == 0xF)
   034C 74 0F              1207 	mov	a,#0x0F
   034E B5*0F 02           1208 	cjne	a,_prog_aux_1_1,00378$
   0351 80 B6              1209 	sjmp	00124$
   0353                    1210 00378$:
                           1211 ;	ProjetoFinal.c:339: displaydata(aux[0] + 0x30);
   0353 E5*0F              1212 	mov	a,_prog_aux_1_1
   0355 FC                 1213 	mov	r4,a
   0356 33                 1214 	rlc	a
   0357 95 E0              1215 	subb	a,acc
   0359 FD                 1216 	mov	r5,a
   035A 74 30              1217 	mov	a,#0x30
   035C 2C                 1218 	add	a,r4
   035D F5 82              1219 	mov	dpl,a
   035F E4                 1220 	clr	a
   0360 3D                 1221 	addc	a,r5
   0361 F5 83              1222 	mov	dph,a
   0363 C0 02              1223 	push	ar2
   0365 12s01r81           1224 	lcall	_displaydata
                           1225 ;	ProjetoFinal.c:340: aux[1] = Key_ASCII2BIN(NovaTeclaKeyDown());
   0368 12s00rB6           1226 	lcall	_NovaTeclaKeyDown
   036B 12s01r1C           1227 	lcall	_Key_ASCII2BIN
   036E E5 82              1228 	mov	a,dpl
   0370 D0 02              1229 	pop	ar2
   0372 F5*10              1230 	mov	(_prog_aux_1_1 + 0x0001),a
                           1231 ;	ProjetoFinal.c:341: while ( (aux[1] < 0 || aux[1] > 9) && aux[1] != 0xF )
   0374                    1232 00134$:
   0374 E5*10              1233 	mov	a,(_prog_aux_1_1 + 0x0001)
   0376 20 E7 0D           1234 	jb	acc.7,00133$
   0379 C3                 1235 	clr	c
   037A 74 89              1236 	mov	a,#(0x09 ^ 0x80)
   037C 85*10 F0           1237 	mov	b,(_prog_aux_1_1 + 0x0001)
   037F 63 F0 80           1238 	xrl	b,#0x80
   0382 95 F0              1239 	subb	a,b
   0384 50 17              1240 	jnc	00136$
   0386                    1241 00133$:
   0386 74 0F              1242 	mov	a,#0x0F
   0388 B5*10 02           1243 	cjne	a,(_prog_aux_1_1 + 0x0001),00381$
   038B 80 10              1244 	sjmp	00136$
   038D                    1245 00381$:
                           1246 ;	ProjetoFinal.c:342: aux[1] = Key_ASCII2BIN(NovaTeclaKeyDown());
   038D C0 02              1247 	push	ar2
   038F 12s00rB6           1248 	lcall	_NovaTeclaKeyDown
   0392 12s01r1C           1249 	lcall	_Key_ASCII2BIN
   0395 E5 82              1250 	mov	a,dpl
   0397 D0 02              1251 	pop	ar2
   0399 F5*10              1252 	mov	(_prog_aux_1_1 + 0x0001),a
   039B 80 D7              1253 	sjmp	00134$
   039D                    1254 00136$:
                           1255 ;	ProjetoFinal.c:343: if (aux[1] == 0xF)
   039D 74 0F              1256 	mov	a,#0x0F
   039F B5*10 03           1257 	cjne	a,(_prog_aux_1_1 + 0x0001),00382$
   03A2 02s03r09           1258 	ljmp	00124$
   03A5                    1259 00382$:
                           1260 ;	ProjetoFinal.c:346: displaydata(aux[1] + 0x30);
   03A5 AC*10              1261 	mov	r4,(_prog_aux_1_1 + 0x0001)
   03A7 E5*10              1262 	mov	a,(_prog_aux_1_1 + 0x0001)
   03A9 33                 1263 	rlc	a
   03AA 95 E0              1264 	subb	a,acc
   03AC FD                 1265 	mov	r5,a
   03AD 74 30              1266 	mov	a,#0x30
   03AF 2C                 1267 	add	a,r4
   03B0 F5 82              1268 	mov	dpl,a
   03B2 E4                 1269 	clr	a
   03B3 3D                 1270 	addc	a,r5
   03B4 F5 83              1271 	mov	dph,a
   03B6 C0 02              1272 	push	ar2
   03B8 12s01r81           1273 	lcall	_displaydata
                           1274 ;	ProjetoFinal.c:347: tecla = Key_ASCII2BIN(NovaTeclaKeyDown());
   03BB 12s00rB6           1275 	lcall	_NovaTeclaKeyDown
   03BE 12s01r1C           1276 	lcall	_Key_ASCII2BIN
   03C1 AB 82              1277 	mov	r3,dpl
   03C3 D0 02              1278 	pop	ar2
                           1279 ;	ProjetoFinal.c:348: while (tecla != 0xE && tecla != 0xF)
   03C5                    1280 00140$:
   03C5 BB 0E 02           1281 	cjne	r3,#0x0E,00383$
   03C8 80 13              1282 	sjmp	00142$
   03CA                    1283 00383$:
   03CA BB 0F 02           1284 	cjne	r3,#0x0F,00384$
   03CD 80 0E              1285 	sjmp	00142$
   03CF                    1286 00384$:
                           1287 ;	ProjetoFinal.c:349: tecla = Key_ASCII2BIN(NovaTeclaKeyDown());
   03CF C0 02              1288 	push	ar2
   03D1 12s00rB6           1289 	lcall	_NovaTeclaKeyDown
   03D4 12s01r1C           1290 	lcall	_Key_ASCII2BIN
   03D7 AB 82              1291 	mov	r3,dpl
   03D9 D0 02              1292 	pop	ar2
   03DB 80 E8              1293 	sjmp	00140$
   03DD                    1294 00142$:
                           1295 ;	ProjetoFinal.c:350: if (tecla == 0xF)
   03DD BB 0F 03           1296 	cjne	r3,#0x0F,00385$
   03E0 02s03r09           1297 	ljmp	00124$
   03E3                    1298 00385$:
                           1299 ;	ProjetoFinal.c:352: if (tecla == 0xE)
   03E3 BB 0E 0D           1300 	cjne	r3,#0x0E,00147$
                           1301 ;	ProjetoFinal.c:353: mounth = aux[0]*16 + aux[1];
   03E6 E5*0F              1302 	mov	a,_prog_aux_1_1
   03E8 C4                 1303 	swap	a
   03E9 54 F0              1304 	anl	a,#0xf0
   03EB FC                 1305 	mov	r4,a
   03EC 90 21 08           1306 	mov	dptr,#_mounth
   03EF E5*10              1307 	mov	a,(_prog_aux_1_1 + 0x0001)
   03F1 2C                 1308 	add	a,r4
   03F2 F0                 1309 	movx	@dptr,a
                           1310 ;	ProjetoFinal.c:355: INICIO_PROG_DIA:
   03F3                    1311 00147$:
                           1312 ;	ProjetoFinal.c:357: cleardisplay();
   03F3 C0 02              1313 	push	ar2
   03F5 12s01rD4           1314 	lcall	_cleardisplay
                           1315 ;	ProjetoFinal.c:358: printDisplay("Dia(00-31): ");
   03F8 90s00r1A           1316 	mov	dptr,#__str_2
   03FB 75 F0 80           1317 	mov	b,#0x80
   03FE 12s01r93           1318 	lcall	_printDisplay
                           1319 ;	ProjetoFinal.c:359: aux[0] = Key_ASCII2BIN(NovaTeclaKeyDown());
   0401 12s00rB6           1320 	lcall	_NovaTeclaKeyDown
   0404 12s01r1C           1321 	lcall	_Key_ASCII2BIN
   0407 E5 82              1322 	mov	a,dpl
   0409 D0 02              1323 	pop	ar2
   040B F5*0F              1324 	mov	_prog_aux_1_1,a
                           1325 ;	ProjetoFinal.c:360: while ( (aux[0] < 0 || aux[0] > 9) && aux[0] != 0xF )
   040D                    1326 00150$:
   040D E5*0F              1327 	mov	a,_prog_aux_1_1
   040F 20 E7 0D           1328 	jb	acc.7,00149$
   0412 C3                 1329 	clr	c
   0413 74 89              1330 	mov	a,#(0x09 ^ 0x80)
   0415 85*0F F0           1331 	mov	b,_prog_aux_1_1
   0418 63 F0 80           1332 	xrl	b,#0x80
   041B 95 F0              1333 	subb	a,b
   041D 50 17              1334 	jnc	00152$
   041F                    1335 00149$:
   041F 74 0F              1336 	mov	a,#0x0F
   0421 B5*0F 02           1337 	cjne	a,_prog_aux_1_1,00390$
   0424 80 10              1338 	sjmp	00152$
   0426                    1339 00390$:
                           1340 ;	ProjetoFinal.c:361: aux[0] = Key_ASCII2BIN(NovaTeclaKeyDown());
   0426 C0 02              1341 	push	ar2
   0428 12s00rB6           1342 	lcall	_NovaTeclaKeyDown
   042B 12s01r1C           1343 	lcall	_Key_ASCII2BIN
   042E E5 82              1344 	mov	a,dpl
   0430 D0 02              1345 	pop	ar2
   0432 F5*0F              1346 	mov	_prog_aux_1_1,a
   0434 80 D7              1347 	sjmp	00150$
   0436                    1348 00152$:
                           1349 ;	ProjetoFinal.c:362: if (aux[0] == 0xF)
   0436 74 0F              1350 	mov	a,#0x0F
   0438 B5*0F 02           1351 	cjne	a,_prog_aux_1_1,00391$
   043B 80 B6              1352 	sjmp	00147$
   043D                    1353 00391$:
                           1354 ;	ProjetoFinal.c:365: displaydata(aux[0] + 0x30);
   043D E5*0F              1355 	mov	a,_prog_aux_1_1
   043F FC                 1356 	mov	r4,a
   0440 33                 1357 	rlc	a
   0441 95 E0              1358 	subb	a,acc
   0443 FD                 1359 	mov	r5,a
   0444 74 30              1360 	mov	a,#0x30
   0446 2C                 1361 	add	a,r4
   0447 F5 82              1362 	mov	dpl,a
   0449 E4                 1363 	clr	a
   044A 3D                 1364 	addc	a,r5
   044B F5 83              1365 	mov	dph,a
   044D C0 02              1366 	push	ar2
   044F 12s01r81           1367 	lcall	_displaydata
                           1368 ;	ProjetoFinal.c:366: aux[1] = Key_ASCII2BIN(NovaTeclaKeyDown());
   0452 12s00rB6           1369 	lcall	_NovaTeclaKeyDown
   0455 12s01r1C           1370 	lcall	_Key_ASCII2BIN
   0458 E5 82              1371 	mov	a,dpl
   045A D0 02              1372 	pop	ar2
   045C F5*10              1373 	mov	(_prog_aux_1_1 + 0x0001),a
                           1374 ;	ProjetoFinal.c:367: while ( (aux[1] < 0 || aux[1] > 9) && aux[1] != 0xF )
   045E                    1375 00157$:
   045E E5*10              1376 	mov	a,(_prog_aux_1_1 + 0x0001)
   0460 20 E7 0D           1377 	jb	acc.7,00156$
   0463 C3                 1378 	clr	c
   0464 74 89              1379 	mov	a,#(0x09 ^ 0x80)
   0466 85*10 F0           1380 	mov	b,(_prog_aux_1_1 + 0x0001)
   0469 63 F0 80           1381 	xrl	b,#0x80
   046C 95 F0              1382 	subb	a,b
   046E 50 17              1383 	jnc	00159$
   0470                    1384 00156$:
   0470 74 0F              1385 	mov	a,#0x0F
   0472 B5*10 02           1386 	cjne	a,(_prog_aux_1_1 + 0x0001),00394$
   0475 80 10              1387 	sjmp	00159$
   0477                    1388 00394$:
                           1389 ;	ProjetoFinal.c:368: aux[1] = Key_ASCII2BIN(NovaTeclaKeyDown());
   0477 C0 02              1390 	push	ar2
   0479 12s00rB6           1391 	lcall	_NovaTeclaKeyDown
   047C 12s01r1C           1392 	lcall	_Key_ASCII2BIN
   047F E5 82              1393 	mov	a,dpl
   0481 D0 02              1394 	pop	ar2
   0483 F5*10              1395 	mov	(_prog_aux_1_1 + 0x0001),a
   0485 80 D7              1396 	sjmp	00157$
   0487                    1397 00159$:
                           1398 ;	ProjetoFinal.c:369: if (aux[1] == 0xF)
   0487 74 0F              1399 	mov	a,#0x0F
   0489 B5*10 03           1400 	cjne	a,(_prog_aux_1_1 + 0x0001),00395$
   048C 02s03rF3           1401 	ljmp	00147$
   048F                    1402 00395$:
                           1403 ;	ProjetoFinal.c:372: displaydata(aux[1] + 0x30);
   048F AC*10              1404 	mov	r4,(_prog_aux_1_1 + 0x0001)
   0491 E5*10              1405 	mov	a,(_prog_aux_1_1 + 0x0001)
   0493 33                 1406 	rlc	a
   0494 95 E0              1407 	subb	a,acc
   0496 FD                 1408 	mov	r5,a
   0497 74 30              1409 	mov	a,#0x30
   0499 2C                 1410 	add	a,r4
   049A F5 82              1411 	mov	dpl,a
   049C E4                 1412 	clr	a
   049D 3D                 1413 	addc	a,r5
   049E F5 83              1414 	mov	dph,a
   04A0 C0 02              1415 	push	ar2
   04A2 12s01r81           1416 	lcall	_displaydata
                           1417 ;	ProjetoFinal.c:373: tecla = Key_ASCII2BIN(NovaTeclaKeyDown());
   04A5 12s00rB6           1418 	lcall	_NovaTeclaKeyDown
   04A8 12s01r1C           1419 	lcall	_Key_ASCII2BIN
   04AB AB 82              1420 	mov	r3,dpl
   04AD D0 02              1421 	pop	ar2
                           1422 ;	ProjetoFinal.c:374: while (tecla != 0xE && tecla != 0xF)
   04AF                    1423 00163$:
   04AF BB 0E 02           1424 	cjne	r3,#0x0E,00396$
   04B2 80 13              1425 	sjmp	00165$
   04B4                    1426 00396$:
   04B4 BB 0F 02           1427 	cjne	r3,#0x0F,00397$
   04B7 80 0E              1428 	sjmp	00165$
   04B9                    1429 00397$:
                           1430 ;	ProjetoFinal.c:375: tecla = Key_ASCII2BIN(NovaTeclaKeyDown());
   04B9 C0 02              1431 	push	ar2
   04BB 12s00rB6           1432 	lcall	_NovaTeclaKeyDown
   04BE 12s01r1C           1433 	lcall	_Key_ASCII2BIN
   04C1 AB 82              1434 	mov	r3,dpl
   04C3 D0 02              1435 	pop	ar2
   04C5 80 E8              1436 	sjmp	00163$
   04C7                    1437 00165$:
                           1438 ;	ProjetoFinal.c:376: if (tecla == 0xF)
   04C7 BB 0F 03           1439 	cjne	r3,#0x0F,00398$
   04CA 02s03rF3           1440 	ljmp	00147$
   04CD                    1441 00398$:
                           1442 ;	ProjetoFinal.c:378: if (tecla == 0xE)
   04CD BB 0E 0D           1443 	cjne	r3,#0x0E,00170$
                           1444 ;	ProjetoFinal.c:379: dateOfMounth = aux[0]*16 + aux[1];
   04D0 E5*0F              1445 	mov	a,_prog_aux_1_1
   04D2 C4                 1446 	swap	a
   04D3 54 F0              1447 	anl	a,#0xf0
   04D5 FC                 1448 	mov	r4,a
   04D6 90 21 07           1449 	mov	dptr,#_dateOfMounth
   04D9 E5*10              1450 	mov	a,(_prog_aux_1_1 + 0x0001)
   04DB 2C                 1451 	add	a,r4
   04DC F0                 1452 	movx	@dptr,a
                           1453 ;	ProjetoFinal.c:381: INICIO_PROG_SEMANA:
   04DD                    1454 00170$:
                           1455 ;	ProjetoFinal.c:383: cleardisplay();
   04DD C0 02              1456 	push	ar2
   04DF 12s01rD4           1457 	lcall	_cleardisplay
                           1458 ;	ProjetoFinal.c:384: printDisplay("DiaSem(01-07):");
   04E2 90s00r27           1459 	mov	dptr,#__str_3
   04E5 75 F0 80           1460 	mov	b,#0x80
   04E8 12s01r93           1461 	lcall	_printDisplay
                           1462 ;	ProjetoFinal.c:385: aux[0] = Key_ASCII2BIN(NovaTeclaKeyDown());
   04EB 12s00rB6           1463 	lcall	_NovaTeclaKeyDown
   04EE 12s01r1C           1464 	lcall	_Key_ASCII2BIN
   04F1 E5 82              1465 	mov	a,dpl
   04F3 D0 02              1466 	pop	ar2
   04F5 F5*0F              1467 	mov	_prog_aux_1_1,a
                           1468 ;	ProjetoFinal.c:386: while ( (aux[0] < 0 || aux[0] > 9) && aux[0] != 0xF )
   04F7                    1469 00173$:
   04F7 E5*0F              1470 	mov	a,_prog_aux_1_1
   04F9 20 E7 0D           1471 	jb	acc.7,00172$
   04FC C3                 1472 	clr	c
   04FD 74 89              1473 	mov	a,#(0x09 ^ 0x80)
   04FF 85*0F F0           1474 	mov	b,_prog_aux_1_1
   0502 63 F0 80           1475 	xrl	b,#0x80
   0505 95 F0              1476 	subb	a,b
   0507 50 17              1477 	jnc	00175$
   0509                    1478 00172$:
   0509 74 0F              1479 	mov	a,#0x0F
   050B B5*0F 02           1480 	cjne	a,_prog_aux_1_1,00403$
   050E 80 10              1481 	sjmp	00175$
   0510                    1482 00403$:
                           1483 ;	ProjetoFinal.c:387: aux[0] = Key_ASCII2BIN(NovaTeclaKeyDown());
   0510 C0 02              1484 	push	ar2
   0512 12s00rB6           1485 	lcall	_NovaTeclaKeyDown
   0515 12s01r1C           1486 	lcall	_Key_ASCII2BIN
   0518 E5 82              1487 	mov	a,dpl
   051A D0 02              1488 	pop	ar2
   051C F5*0F              1489 	mov	_prog_aux_1_1,a
   051E 80 D7              1490 	sjmp	00173$
   0520                    1491 00175$:
                           1492 ;	ProjetoFinal.c:388: if (aux[0] == 0xF)
   0520 74 0F              1493 	mov	a,#0x0F
   0522 B5*0F 02           1494 	cjne	a,_prog_aux_1_1,00404$
   0525 80 B6              1495 	sjmp	00170$
   0527                    1496 00404$:
                           1497 ;	ProjetoFinal.c:391: displaydata(aux[0] + 0x30);
   0527 E5*0F              1498 	mov	a,_prog_aux_1_1
   0529 FC                 1499 	mov	r4,a
   052A 33                 1500 	rlc	a
   052B 95 E0              1501 	subb	a,acc
   052D FD                 1502 	mov	r5,a
   052E 74 30              1503 	mov	a,#0x30
   0530 2C                 1504 	add	a,r4
   0531 F5 82              1505 	mov	dpl,a
   0533 E4                 1506 	clr	a
   0534 3D                 1507 	addc	a,r5
   0535 F5 83              1508 	mov	dph,a
   0537 C0 02              1509 	push	ar2
   0539 12s01r81           1510 	lcall	_displaydata
                           1511 ;	ProjetoFinal.c:392: aux[1] = Key_ASCII2BIN(NovaTeclaKeyDown());
   053C 12s00rB6           1512 	lcall	_NovaTeclaKeyDown
   053F 12s01r1C           1513 	lcall	_Key_ASCII2BIN
   0542 E5 82              1514 	mov	a,dpl
   0544 D0 02              1515 	pop	ar2
   0546 F5*10              1516 	mov	(_prog_aux_1_1 + 0x0001),a
                           1517 ;	ProjetoFinal.c:393: while ( (aux[1] < 0 || aux[1] > 9) && aux[1] != 0xF )
   0548                    1518 00180$:
   0548 E5*10              1519 	mov	a,(_prog_aux_1_1 + 0x0001)
   054A 20 E7 0D           1520 	jb	acc.7,00179$
   054D C3                 1521 	clr	c
   054E 74 89              1522 	mov	a,#(0x09 ^ 0x80)
   0550 85*10 F0           1523 	mov	b,(_prog_aux_1_1 + 0x0001)
   0553 63 F0 80           1524 	xrl	b,#0x80
   0556 95 F0              1525 	subb	a,b
   0558 50 17              1526 	jnc	00182$
   055A                    1527 00179$:
   055A 74 0F              1528 	mov	a,#0x0F
   055C B5*10 02           1529 	cjne	a,(_prog_aux_1_1 + 0x0001),00407$
   055F 80 10              1530 	sjmp	00182$
   0561                    1531 00407$:
                           1532 ;	ProjetoFinal.c:394: aux[1] = Key_ASCII2BIN(NovaTeclaKeyDown());
   0561 C0 02              1533 	push	ar2
   0563 12s00rB6           1534 	lcall	_NovaTeclaKeyDown
   0566 12s01r1C           1535 	lcall	_Key_ASCII2BIN
   0569 E5 82              1536 	mov	a,dpl
   056B D0 02              1537 	pop	ar2
   056D F5*10              1538 	mov	(_prog_aux_1_1 + 0x0001),a
   056F 80 D7              1539 	sjmp	00180$
   0571                    1540 00182$:
                           1541 ;	ProjetoFinal.c:395: if (aux[1] == 0xF)
   0571 74 0F              1542 	mov	a,#0x0F
   0573 B5*10 03           1543 	cjne	a,(_prog_aux_1_1 + 0x0001),00408$
   0576 02s04rDD           1544 	ljmp	00170$
   0579                    1545 00408$:
                           1546 ;	ProjetoFinal.c:398: displaydata(aux[1] + 0x30);
   0579 AC*10              1547 	mov	r4,(_prog_aux_1_1 + 0x0001)
   057B E5*10              1548 	mov	a,(_prog_aux_1_1 + 0x0001)
   057D 33                 1549 	rlc	a
   057E 95 E0              1550 	subb	a,acc
   0580 FD                 1551 	mov	r5,a
   0581 74 30              1552 	mov	a,#0x30
   0583 2C                 1553 	add	a,r4
   0584 F5 82              1554 	mov	dpl,a
   0586 E4                 1555 	clr	a
   0587 3D                 1556 	addc	a,r5
   0588 F5 83              1557 	mov	dph,a
   058A C0 02              1558 	push	ar2
   058C 12s01r81           1559 	lcall	_displaydata
                           1560 ;	ProjetoFinal.c:399: tecla = Key_ASCII2BIN(NovaTeclaKeyDown());
   058F 12s00rB6           1561 	lcall	_NovaTeclaKeyDown
   0592 12s01r1C           1562 	lcall	_Key_ASCII2BIN
   0595 AB 82              1563 	mov	r3,dpl
   0597 D0 02              1564 	pop	ar2
                           1565 ;	ProjetoFinal.c:400: while (tecla != 0xE && tecla != 0xF)
   0599                    1566 00186$:
   0599 BB 0E 02           1567 	cjne	r3,#0x0E,00409$
   059C 80 13              1568 	sjmp	00188$
   059E                    1569 00409$:
   059E BB 0F 02           1570 	cjne	r3,#0x0F,00410$
   05A1 80 0E              1571 	sjmp	00188$
   05A3                    1572 00410$:
                           1573 ;	ProjetoFinal.c:401: tecla = Key_ASCII2BIN(NovaTeclaKeyDown());
   05A3 C0 02              1574 	push	ar2
   05A5 12s00rB6           1575 	lcall	_NovaTeclaKeyDown
   05A8 12s01r1C           1576 	lcall	_Key_ASCII2BIN
   05AB AB 82              1577 	mov	r3,dpl
   05AD D0 02              1578 	pop	ar2
   05AF 80 E8              1579 	sjmp	00186$
   05B1                    1580 00188$:
                           1581 ;	ProjetoFinal.c:402: if (tecla == 0xF)
   05B1 BB 0F 03           1582 	cjne	r3,#0x0F,00411$
   05B4 02s04rDD           1583 	ljmp	00170$
   05B7                    1584 00411$:
                           1585 ;	ProjetoFinal.c:404: if (tecla == 0xE)
   05B7 BB 0E 0D           1586 	cjne	r3,#0x0E,00193$
                           1587 ;	ProjetoFinal.c:405: dayOfWeek = aux[0]*16 + aux[1];
   05BA E5*0F              1588 	mov	a,_prog_aux_1_1
   05BC C4                 1589 	swap	a
   05BD 54 F0              1590 	anl	a,#0xf0
   05BF FC                 1591 	mov	r4,a
   05C0 90 21 06           1592 	mov	dptr,#_dayOfWeek
   05C3 E5*10              1593 	mov	a,(_prog_aux_1_1 + 0x0001)
   05C5 2C                 1594 	add	a,r4
   05C6 F0                 1595 	movx	@dptr,a
                           1596 ;	ProjetoFinal.c:407: INICIO_PROG_HORA:
   05C7                    1597 00193$:
                           1598 ;	ProjetoFinal.c:409: cleardisplay();
   05C7 C0 02              1599 	push	ar2
   05C9 12s01rD4           1600 	lcall	_cleardisplay
                           1601 ;	ProjetoFinal.c:410: printDisplay("Hora(00-23): ");
   05CC 90s00r36           1602 	mov	dptr,#__str_4
   05CF 75 F0 80           1603 	mov	b,#0x80
   05D2 12s01r93           1604 	lcall	_printDisplay
                           1605 ;	ProjetoFinal.c:411: aux[0] = Key_ASCII2BIN(NovaTeclaKeyDown());
   05D5 12s00rB6           1606 	lcall	_NovaTeclaKeyDown
   05D8 12s01r1C           1607 	lcall	_Key_ASCII2BIN
   05DB E5 82              1608 	mov	a,dpl
   05DD D0 02              1609 	pop	ar2
   05DF F5*0F              1610 	mov	_prog_aux_1_1,a
                           1611 ;	ProjetoFinal.c:412: while ( (aux[0] < 0 || aux[0] > 9) && aux[0] != 0xF )
   05E1                    1612 00196$:
   05E1 E5*0F              1613 	mov	a,_prog_aux_1_1
   05E3 20 E7 0D           1614 	jb	acc.7,00195$
   05E6 C3                 1615 	clr	c
   05E7 74 89              1616 	mov	a,#(0x09 ^ 0x80)
   05E9 85*0F F0           1617 	mov	b,_prog_aux_1_1
   05EC 63 F0 80           1618 	xrl	b,#0x80
   05EF 95 F0              1619 	subb	a,b
   05F1 50 17              1620 	jnc	00198$
   05F3                    1621 00195$:
   05F3 74 0F              1622 	mov	a,#0x0F
   05F5 B5*0F 02           1623 	cjne	a,_prog_aux_1_1,00416$
   05F8 80 10              1624 	sjmp	00198$
   05FA                    1625 00416$:
                           1626 ;	ProjetoFinal.c:413: aux[0] = Key_ASCII2BIN(NovaTeclaKeyDown());
   05FA C0 02              1627 	push	ar2
   05FC 12s00rB6           1628 	lcall	_NovaTeclaKeyDown
   05FF 12s01r1C           1629 	lcall	_Key_ASCII2BIN
   0602 E5 82              1630 	mov	a,dpl
   0604 D0 02              1631 	pop	ar2
   0606 F5*0F              1632 	mov	_prog_aux_1_1,a
   0608 80 D7              1633 	sjmp	00196$
   060A                    1634 00198$:
                           1635 ;	ProjetoFinal.c:414: if (aux[0] == 0xF)
   060A 74 0F              1636 	mov	a,#0x0F
   060C B5*0F 02           1637 	cjne	a,_prog_aux_1_1,00417$
   060F 80 B6              1638 	sjmp	00193$
   0611                    1639 00417$:
                           1640 ;	ProjetoFinal.c:417: displaydata(aux[0] + 0x30);
   0611 E5*0F              1641 	mov	a,_prog_aux_1_1
   0613 FC                 1642 	mov	r4,a
   0614 33                 1643 	rlc	a
   0615 95 E0              1644 	subb	a,acc
   0617 FD                 1645 	mov	r5,a
   0618 74 30              1646 	mov	a,#0x30
   061A 2C                 1647 	add	a,r4
   061B F5 82              1648 	mov	dpl,a
   061D E4                 1649 	clr	a
   061E 3D                 1650 	addc	a,r5
   061F F5 83              1651 	mov	dph,a
   0621 C0 02              1652 	push	ar2
   0623 12s01r81           1653 	lcall	_displaydata
                           1654 ;	ProjetoFinal.c:418: aux[1] = Key_ASCII2BIN(NovaTeclaKeyDown());
   0626 12s00rB6           1655 	lcall	_NovaTeclaKeyDown
   0629 12s01r1C           1656 	lcall	_Key_ASCII2BIN
   062C E5 82              1657 	mov	a,dpl
   062E D0 02              1658 	pop	ar2
   0630 F5*10              1659 	mov	(_prog_aux_1_1 + 0x0001),a
                           1660 ;	ProjetoFinal.c:419: while ( (aux[1] < 0 || aux[1] > 9) && aux[1] != 0xF )
   0632                    1661 00203$:
   0632 E5*10              1662 	mov	a,(_prog_aux_1_1 + 0x0001)
   0634 20 E7 0D           1663 	jb	acc.7,00202$
   0637 C3                 1664 	clr	c
   0638 74 89              1665 	mov	a,#(0x09 ^ 0x80)
   063A 85*10 F0           1666 	mov	b,(_prog_aux_1_1 + 0x0001)
   063D 63 F0 80           1667 	xrl	b,#0x80
   0640 95 F0              1668 	subb	a,b
   0642 50 17              1669 	jnc	00205$
   0644                    1670 00202$:
   0644 74 0F              1671 	mov	a,#0x0F
   0646 B5*10 02           1672 	cjne	a,(_prog_aux_1_1 + 0x0001),00420$
   0649 80 10              1673 	sjmp	00205$
   064B                    1674 00420$:
                           1675 ;	ProjetoFinal.c:420: aux[1] = Key_ASCII2BIN(NovaTeclaKeyDown());
   064B C0 02              1676 	push	ar2
   064D 12s00rB6           1677 	lcall	_NovaTeclaKeyDown
   0650 12s01r1C           1678 	lcall	_Key_ASCII2BIN
   0653 E5 82              1679 	mov	a,dpl
   0655 D0 02              1680 	pop	ar2
   0657 F5*10              1681 	mov	(_prog_aux_1_1 + 0x0001),a
   0659 80 D7              1682 	sjmp	00203$
   065B                    1683 00205$:
                           1684 ;	ProjetoFinal.c:421: if (aux[1] == 0xF)
   065B 74 0F              1685 	mov	a,#0x0F
   065D B5*10 03           1686 	cjne	a,(_prog_aux_1_1 + 0x0001),00421$
   0660 02s05rC7           1687 	ljmp	00193$
   0663                    1688 00421$:
                           1689 ;	ProjetoFinal.c:424: displaydata(aux[1] + 0x30);
   0663 AC*10              1690 	mov	r4,(_prog_aux_1_1 + 0x0001)
   0665 E5*10              1691 	mov	a,(_prog_aux_1_1 + 0x0001)
   0667 33                 1692 	rlc	a
   0668 95 E0              1693 	subb	a,acc
   066A FD                 1694 	mov	r5,a
   066B 74 30              1695 	mov	a,#0x30
   066D 2C                 1696 	add	a,r4
   066E F5 82              1697 	mov	dpl,a
   0670 E4                 1698 	clr	a
   0671 3D                 1699 	addc	a,r5
   0672 F5 83              1700 	mov	dph,a
   0674 C0 02              1701 	push	ar2
   0676 12s01r81           1702 	lcall	_displaydata
                           1703 ;	ProjetoFinal.c:425: tecla = Key_ASCII2BIN(NovaTeclaKeyDown());
   0679 12s00rB6           1704 	lcall	_NovaTeclaKeyDown
   067C 12s01r1C           1705 	lcall	_Key_ASCII2BIN
   067F AB 82              1706 	mov	r3,dpl
   0681 D0 02              1707 	pop	ar2
                           1708 ;	ProjetoFinal.c:426: while (tecla != 0xE && tecla != 0xF)
   0683                    1709 00209$:
   0683 BB 0E 02           1710 	cjne	r3,#0x0E,00422$
   0686 80 13              1711 	sjmp	00211$
   0688                    1712 00422$:
   0688 BB 0F 02           1713 	cjne	r3,#0x0F,00423$
   068B 80 0E              1714 	sjmp	00211$
   068D                    1715 00423$:
                           1716 ;	ProjetoFinal.c:427: tecla = Key_ASCII2BIN(NovaTeclaKeyDown());
   068D C0 02              1717 	push	ar2
   068F 12s00rB6           1718 	lcall	_NovaTeclaKeyDown
   0692 12s01r1C           1719 	lcall	_Key_ASCII2BIN
   0695 AB 82              1720 	mov	r3,dpl
   0697 D0 02              1721 	pop	ar2
   0699 80 E8              1722 	sjmp	00209$
   069B                    1723 00211$:
                           1724 ;	ProjetoFinal.c:428: if (tecla == 0xF)
   069B BB 0F 03           1725 	cjne	r3,#0x0F,00424$
   069E 02s05rC7           1726 	ljmp	00193$
   06A1                    1727 00424$:
                           1728 ;	ProjetoFinal.c:430: if (tecla == 0xE)
   06A1 BB 0E 0D           1729 	cjne	r3,#0x0E,00216$
                           1730 ;	ProjetoFinal.c:431: hours = aux[0]*16 + aux[1];
   06A4 E5*0F              1731 	mov	a,_prog_aux_1_1
   06A6 C4                 1732 	swap	a
   06A7 54 F0              1733 	anl	a,#0xf0
   06A9 FC                 1734 	mov	r4,a
   06AA 90 21 04           1735 	mov	dptr,#_hours
   06AD E5*10              1736 	mov	a,(_prog_aux_1_1 + 0x0001)
   06AF 2C                 1737 	add	a,r4
   06B0 F0                 1738 	movx	@dptr,a
                           1739 ;	ProjetoFinal.c:433: INICIO_PROG_MIN:
   06B1                    1740 00216$:
                           1741 ;	ProjetoFinal.c:435: cleardisplay();
   06B1 C0 02              1742 	push	ar2
   06B3 12s01rD4           1743 	lcall	_cleardisplay
                           1744 ;	ProjetoFinal.c:436: printDisplay("Min(00-59): ");
   06B6 90s00r44           1745 	mov	dptr,#__str_5
   06B9 75 F0 80           1746 	mov	b,#0x80
   06BC 12s01r93           1747 	lcall	_printDisplay
                           1748 ;	ProjetoFinal.c:437: aux[0] = Key_ASCII2BIN(NovaTeclaKeyDown());
   06BF 12s00rB6           1749 	lcall	_NovaTeclaKeyDown
   06C2 12s01r1C           1750 	lcall	_Key_ASCII2BIN
   06C5 E5 82              1751 	mov	a,dpl
   06C7 D0 02              1752 	pop	ar2
   06C9 F5*0F              1753 	mov	_prog_aux_1_1,a
                           1754 ;	ProjetoFinal.c:438: while ( (aux[0] < 0 || aux[0] > 9) && aux[0] != 0xF )
   06CB                    1755 00219$:
   06CB E5*0F              1756 	mov	a,_prog_aux_1_1
   06CD 20 E7 0D           1757 	jb	acc.7,00218$
   06D0 C3                 1758 	clr	c
   06D1 74 89              1759 	mov	a,#(0x09 ^ 0x80)
   06D3 85*0F F0           1760 	mov	b,_prog_aux_1_1
   06D6 63 F0 80           1761 	xrl	b,#0x80
   06D9 95 F0              1762 	subb	a,b
   06DB 50 17              1763 	jnc	00221$
   06DD                    1764 00218$:
   06DD 74 0F              1765 	mov	a,#0x0F
   06DF B5*0F 02           1766 	cjne	a,_prog_aux_1_1,00429$
   06E2 80 10              1767 	sjmp	00221$
   06E4                    1768 00429$:
                           1769 ;	ProjetoFinal.c:439: aux[0] = Key_ASCII2BIN(NovaTeclaKeyDown());
   06E4 C0 02              1770 	push	ar2
   06E6 12s00rB6           1771 	lcall	_NovaTeclaKeyDown
   06E9 12s01r1C           1772 	lcall	_Key_ASCII2BIN
   06EC E5 82              1773 	mov	a,dpl
   06EE D0 02              1774 	pop	ar2
   06F0 F5*0F              1775 	mov	_prog_aux_1_1,a
   06F2 80 D7              1776 	sjmp	00219$
   06F4                    1777 00221$:
                           1778 ;	ProjetoFinal.c:440: if (aux[0] == 0xF)
   06F4 74 0F              1779 	mov	a,#0x0F
   06F6 B5*0F 02           1780 	cjne	a,_prog_aux_1_1,00430$
   06F9 80 B6              1781 	sjmp	00216$
   06FB                    1782 00430$:
                           1783 ;	ProjetoFinal.c:443: displaydata(aux[0] + 0x30);
   06FB E5*0F              1784 	mov	a,_prog_aux_1_1
   06FD FC                 1785 	mov	r4,a
   06FE 33                 1786 	rlc	a
   06FF 95 E0              1787 	subb	a,acc
   0701 FD                 1788 	mov	r5,a
   0702 74 30              1789 	mov	a,#0x30
   0704 2C                 1790 	add	a,r4
   0705 F5 82              1791 	mov	dpl,a
   0707 E4                 1792 	clr	a
   0708 3D                 1793 	addc	a,r5
   0709 F5 83              1794 	mov	dph,a
   070B C0 02              1795 	push	ar2
   070D 12s01r81           1796 	lcall	_displaydata
                           1797 ;	ProjetoFinal.c:444: aux[1] = Key_ASCII2BIN(NovaTeclaKeyDown());
   0710 12s00rB6           1798 	lcall	_NovaTeclaKeyDown
   0713 12s01r1C           1799 	lcall	_Key_ASCII2BIN
   0716 E5 82              1800 	mov	a,dpl
   0718 D0 02              1801 	pop	ar2
   071A F5*10              1802 	mov	(_prog_aux_1_1 + 0x0001),a
                           1803 ;	ProjetoFinal.c:445: while ( (aux[1] < 0 || aux[1] > 9) && aux[1] != 0xF )
   071C                    1804 00226$:
   071C E5*10              1805 	mov	a,(_prog_aux_1_1 + 0x0001)
   071E 20 E7 0D           1806 	jb	acc.7,00225$
   0721 C3                 1807 	clr	c
   0722 74 89              1808 	mov	a,#(0x09 ^ 0x80)
   0724 85*10 F0           1809 	mov	b,(_prog_aux_1_1 + 0x0001)
   0727 63 F0 80           1810 	xrl	b,#0x80
   072A 95 F0              1811 	subb	a,b
   072C 50 17              1812 	jnc	00228$
   072E                    1813 00225$:
   072E 74 0F              1814 	mov	a,#0x0F
   0730 B5*10 02           1815 	cjne	a,(_prog_aux_1_1 + 0x0001),00433$
   0733 80 10              1816 	sjmp	00228$
   0735                    1817 00433$:
                           1818 ;	ProjetoFinal.c:446: aux[1] = Key_ASCII2BIN(NovaTeclaKeyDown());
   0735 C0 02              1819 	push	ar2
   0737 12s00rB6           1820 	lcall	_NovaTeclaKeyDown
   073A 12s01r1C           1821 	lcall	_Key_ASCII2BIN
   073D E5 82              1822 	mov	a,dpl
   073F D0 02              1823 	pop	ar2
   0741 F5*10              1824 	mov	(_prog_aux_1_1 + 0x0001),a
   0743 80 D7              1825 	sjmp	00226$
   0745                    1826 00228$:
                           1827 ;	ProjetoFinal.c:447: if (aux[1] == 0xF)
   0745 74 0F              1828 	mov	a,#0x0F
   0747 B5*10 03           1829 	cjne	a,(_prog_aux_1_1 + 0x0001),00434$
   074A 02s06rB1           1830 	ljmp	00216$
   074D                    1831 00434$:
                           1832 ;	ProjetoFinal.c:450: displaydata(aux[1] + 0x30);
   074D AC*10              1833 	mov	r4,(_prog_aux_1_1 + 0x0001)
   074F E5*10              1834 	mov	a,(_prog_aux_1_1 + 0x0001)
   0751 33                 1835 	rlc	a
   0752 95 E0              1836 	subb	a,acc
   0754 FD                 1837 	mov	r5,a
   0755 74 30              1838 	mov	a,#0x30
   0757 2C                 1839 	add	a,r4
   0758 F5 82              1840 	mov	dpl,a
   075A E4                 1841 	clr	a
   075B 3D                 1842 	addc	a,r5
   075C F5 83              1843 	mov	dph,a
   075E C0 02              1844 	push	ar2
   0760 12s01r81           1845 	lcall	_displaydata
                           1846 ;	ProjetoFinal.c:451: tecla = Key_ASCII2BIN(NovaTeclaKeyDown());
   0763 12s00rB6           1847 	lcall	_NovaTeclaKeyDown
   0766 12s01r1C           1848 	lcall	_Key_ASCII2BIN
   0769 AB 82              1849 	mov	r3,dpl
   076B D0 02              1850 	pop	ar2
                           1851 ;	ProjetoFinal.c:452: while (tecla != 0xE && tecla != 0xF)
   076D                    1852 00232$:
   076D BB 0E 02           1853 	cjne	r3,#0x0E,00435$
   0770 80 13              1854 	sjmp	00234$
   0772                    1855 00435$:
   0772 BB 0F 02           1856 	cjne	r3,#0x0F,00436$
   0775 80 0E              1857 	sjmp	00234$
   0777                    1858 00436$:
                           1859 ;	ProjetoFinal.c:453: tecla = Key_ASCII2BIN(NovaTeclaKeyDown());
   0777 C0 02              1860 	push	ar2
   0779 12s00rB6           1861 	lcall	_NovaTeclaKeyDown
   077C 12s01r1C           1862 	lcall	_Key_ASCII2BIN
   077F AB 82              1863 	mov	r3,dpl
   0781 D0 02              1864 	pop	ar2
   0783 80 E8              1865 	sjmp	00232$
   0785                    1866 00234$:
                           1867 ;	ProjetoFinal.c:454: if (tecla == 0xF)
   0785 BB 0F 03           1868 	cjne	r3,#0x0F,00437$
   0788 02s06rB1           1869 	ljmp	00216$
   078B                    1870 00437$:
                           1871 ;	ProjetoFinal.c:456: if (tecla == 0xE)
   078B BB 0E 0D           1872 	cjne	r3,#0x0E,00239$
                           1873 ;	ProjetoFinal.c:457: minutes = aux[0]*16 + aux[1];
   078E E5*0F              1874 	mov	a,_prog_aux_1_1
   0790 C4                 1875 	swap	a
   0791 54 F0              1876 	anl	a,#0xf0
   0793 FC                 1877 	mov	r4,a
   0794 90 21 02           1878 	mov	dptr,#_minutes
   0797 E5*10              1879 	mov	a,(_prog_aux_1_1 + 0x0001)
   0799 2C                 1880 	add	a,r4
   079A F0                 1881 	movx	@dptr,a
                           1882 ;	ProjetoFinal.c:459: INICIO_PROG_SEG:
   079B                    1883 00239$:
                           1884 ;	ProjetoFinal.c:461: cleardisplay();
   079B C0 02              1885 	push	ar2
   079D 12s01rD4           1886 	lcall	_cleardisplay
                           1887 ;	ProjetoFinal.c:462: printDisplay("Seg(00-59): ");
   07A0 90s00r51           1888 	mov	dptr,#__str_6
   07A3 75 F0 80           1889 	mov	b,#0x80
   07A6 12s01r93           1890 	lcall	_printDisplay
                           1891 ;	ProjetoFinal.c:463: aux[0] = Key_ASCII2BIN(NovaTeclaKeyDown());
   07A9 12s00rB6           1892 	lcall	_NovaTeclaKeyDown
   07AC 12s01r1C           1893 	lcall	_Key_ASCII2BIN
   07AF E5 82              1894 	mov	a,dpl
   07B1 D0 02              1895 	pop	ar2
   07B3 F5*0F              1896 	mov	_prog_aux_1_1,a
                           1897 ;	ProjetoFinal.c:464: while ( (aux[0] < 0 || aux[0] > 9) && aux[0] != 0xF )
   07B5                    1898 00242$:
   07B5 E5*0F              1899 	mov	a,_prog_aux_1_1
   07B7 20 E7 0D           1900 	jb	acc.7,00241$
   07BA C3                 1901 	clr	c
   07BB 74 89              1902 	mov	a,#(0x09 ^ 0x80)
   07BD 85*0F F0           1903 	mov	b,_prog_aux_1_1
   07C0 63 F0 80           1904 	xrl	b,#0x80
   07C3 95 F0              1905 	subb	a,b
   07C5 50 17              1906 	jnc	00244$
   07C7                    1907 00241$:
   07C7 74 0F              1908 	mov	a,#0x0F
   07C9 B5*0F 02           1909 	cjne	a,_prog_aux_1_1,00442$
   07CC 80 10              1910 	sjmp	00244$
   07CE                    1911 00442$:
                           1912 ;	ProjetoFinal.c:465: aux[0] = Key_ASCII2BIN(NovaTeclaKeyDown());
   07CE C0 02              1913 	push	ar2
   07D0 12s00rB6           1914 	lcall	_NovaTeclaKeyDown
   07D3 12s01r1C           1915 	lcall	_Key_ASCII2BIN
   07D6 E5 82              1916 	mov	a,dpl
   07D8 D0 02              1917 	pop	ar2
   07DA F5*0F              1918 	mov	_prog_aux_1_1,a
   07DC 80 D7              1919 	sjmp	00242$
   07DE                    1920 00244$:
                           1921 ;	ProjetoFinal.c:466: if (aux[0] == 0xF)
   07DE 74 0F              1922 	mov	a,#0x0F
   07E0 B5*0F 02           1923 	cjne	a,_prog_aux_1_1,00443$
   07E3 80 B6              1924 	sjmp	00239$
   07E5                    1925 00443$:
                           1926 ;	ProjetoFinal.c:469: displaydata(aux[0] + 0x30);
   07E5 E5*0F              1927 	mov	a,_prog_aux_1_1
   07E7 FC                 1928 	mov	r4,a
   07E8 33                 1929 	rlc	a
   07E9 95 E0              1930 	subb	a,acc
   07EB FD                 1931 	mov	r5,a
   07EC 74 30              1932 	mov	a,#0x30
   07EE 2C                 1933 	add	a,r4
   07EF F5 82              1934 	mov	dpl,a
   07F1 E4                 1935 	clr	a
   07F2 3D                 1936 	addc	a,r5
   07F3 F5 83              1937 	mov	dph,a
   07F5 C0 02              1938 	push	ar2
   07F7 12s01r81           1939 	lcall	_displaydata
                           1940 ;	ProjetoFinal.c:470: aux[1] = Key_ASCII2BIN(NovaTeclaKeyDown());
   07FA 12s00rB6           1941 	lcall	_NovaTeclaKeyDown
   07FD 12s01r1C           1942 	lcall	_Key_ASCII2BIN
   0800 E5 82              1943 	mov	a,dpl
   0802 D0 02              1944 	pop	ar2
   0804 F5*10              1945 	mov	(_prog_aux_1_1 + 0x0001),a
                           1946 ;	ProjetoFinal.c:471: while ( (aux[1] < 0 || aux[1] > 9) && aux[1] != 0xF )
   0806                    1947 00249$:
   0806 E5*10              1948 	mov	a,(_prog_aux_1_1 + 0x0001)
   0808 20 E7 0D           1949 	jb	acc.7,00248$
   080B C3                 1950 	clr	c
   080C 74 89              1951 	mov	a,#(0x09 ^ 0x80)
   080E 85*10 F0           1952 	mov	b,(_prog_aux_1_1 + 0x0001)
   0811 63 F0 80           1953 	xrl	b,#0x80
   0814 95 F0              1954 	subb	a,b
   0816 50 17              1955 	jnc	00251$
   0818                    1956 00248$:
   0818 74 0F              1957 	mov	a,#0x0F
   081A B5*10 02           1958 	cjne	a,(_prog_aux_1_1 + 0x0001),00446$
   081D 80 10              1959 	sjmp	00251$
   081F                    1960 00446$:
                           1961 ;	ProjetoFinal.c:472: aux[1] = Key_ASCII2BIN(NovaTeclaKeyDown());
   081F C0 02              1962 	push	ar2
   0821 12s00rB6           1963 	lcall	_NovaTeclaKeyDown
   0824 12s01r1C           1964 	lcall	_Key_ASCII2BIN
   0827 E5 82              1965 	mov	a,dpl
   0829 D0 02              1966 	pop	ar2
   082B F5*10              1967 	mov	(_prog_aux_1_1 + 0x0001),a
   082D 80 D7              1968 	sjmp	00249$
   082F                    1969 00251$:
                           1970 ;	ProjetoFinal.c:473: if (aux[1] == 0xF)
   082F 74 0F              1971 	mov	a,#0x0F
   0831 B5*10 03           1972 	cjne	a,(_prog_aux_1_1 + 0x0001),00447$
   0834 02s07r9B           1973 	ljmp	00239$
   0837                    1974 00447$:
                           1975 ;	ProjetoFinal.c:476: displaydata(aux[1] + 0x30);
   0837 AC*10              1976 	mov	r4,(_prog_aux_1_1 + 0x0001)
   0839 E5*10              1977 	mov	a,(_prog_aux_1_1 + 0x0001)
   083B 33                 1978 	rlc	a
   083C 95 E0              1979 	subb	a,acc
   083E FD                 1980 	mov	r5,a
   083F 74 30              1981 	mov	a,#0x30
   0841 2C                 1982 	add	a,r4
   0842 F5 82              1983 	mov	dpl,a
   0844 E4                 1984 	clr	a
   0845 3D                 1985 	addc	a,r5
   0846 F5 83              1986 	mov	dph,a
   0848 C0 02              1987 	push	ar2
   084A 12s01r81           1988 	lcall	_displaydata
                           1989 ;	ProjetoFinal.c:477: tecla = Key_ASCII2BIN(NovaTeclaKeyDown());
   084D 12s00rB6           1990 	lcall	_NovaTeclaKeyDown
   0850 12s01r1C           1991 	lcall	_Key_ASCII2BIN
   0853 AB 82              1992 	mov	r3,dpl
   0855 D0 02              1993 	pop	ar2
                           1994 ;	ProjetoFinal.c:478: while (tecla != 0xE && tecla != 0xF)
   0857                    1995 00255$:
   0857 BB 0E 02           1996 	cjne	r3,#0x0E,00448$
   085A 80 13              1997 	sjmp	00257$
   085C                    1998 00448$:
   085C BB 0F 02           1999 	cjne	r3,#0x0F,00449$
   085F 80 0E              2000 	sjmp	00257$
   0861                    2001 00449$:
                           2002 ;	ProjetoFinal.c:479: tecla = Key_ASCII2BIN(NovaTeclaKeyDown());
   0861 C0 02              2003 	push	ar2
   0863 12s00rB6           2004 	lcall	_NovaTeclaKeyDown
   0866 12s01r1C           2005 	lcall	_Key_ASCII2BIN
   0869 AB 82              2006 	mov	r3,dpl
   086B D0 02              2007 	pop	ar2
   086D 80 E8              2008 	sjmp	00255$
   086F                    2009 00257$:
                           2010 ;	ProjetoFinal.c:480: if (tecla == 0xF)
   086F BB 0F 03           2011 	cjne	r3,#0x0F,00450$
   0872 02s07r9B           2012 	ljmp	00239$
   0875                    2013 00450$:
                           2014 ;	ProjetoFinal.c:482: if (tecla == 0xE)
   0875 BB 0E 0D           2015 	cjne	r3,#0x0E,00261$
                           2016 ;	ProjetoFinal.c:483: seconds = aux[0]*16 + aux[1];
   0878 E5*0F              2017 	mov	a,_prog_aux_1_1
   087A C4                 2018 	swap	a
   087B 54 F0              2019 	anl	a,#0xf0
   087D FB                 2020 	mov	r3,a
   087E 90 21 00           2021 	mov	dptr,#_seconds
   0881 E5*10              2022 	mov	a,(_prog_aux_1_1 + 0x0001)
   0883 2B                 2023 	add	a,r3
   0884 F0                 2024 	movx	@dptr,a
   0885                    2025 00261$:
                           2026 ;	ProjetoFinal.c:486: IE = auxIE;
   0885 8A A8              2027 	mov	_IE,r2
                           2028 ;	ProjetoFinal.c:487: regB &= 0x7F;
   0887 90 21 0B           2029 	mov	dptr,#_regB
   088A E0                 2030 	movx	a,@dptr
   088B 54 7F              2031 	anl	a,#0x7F
   088D F0                 2032 	movx	@dptr,a
   088E 22                 2033 	ret
                           2034 ;------------------------------------------------------------
                           2035 ;Allocation info for local variables in function 'progAlarm'
                           2036 ;------------------------------------------------------------
                           2037 ;auxIE                     Allocated to registers r2 
                           2038 ;aux                       Allocated with name '_progAlarm_aux_1_1'
                           2039 ;tecla                     Allocated to registers r3 
                           2040 ;------------------------------------------------------------
                           2041 ;	ProjetoFinal.c:495: void progAlarm(){
                           2042 ;	-----------------------------------------
                           2043 ;	 function progAlarm
                           2044 ;	-----------------------------------------
   088F                    2045 _progAlarm:
                           2046 ;	ProjetoFinal.c:498: auxIE = IE;
   088F AA A8              2047 	mov	r2,_IE
                           2048 ;	ProjetoFinal.c:499: IE &= 0xEF;
   0891 53 A8 EF           2049 	anl	_IE,#0xEF
                           2050 ;	ProjetoFinal.c:500: regB |= 0x80;
   0894 90 21 0B           2051 	mov	dptr,#_regB
   0897 E0                 2052 	movx	a,@dptr
   0898 FB                 2053 	mov	r3,a
   0899 44 80              2054 	orl	a,#0x80
   089B F0                 2055 	movx	@dptr,a
                           2056 ;	ProjetoFinal.c:502: INICIO_PROG_ALARM_QTD:
   089C                    2057 00101$:
                           2058 ;	ProjetoFinal.c:504: cleardisplay();
   089C C0 02              2059 	push	ar2
   089E 12s01rD4           2060 	lcall	_cleardisplay
                           2061 ;	ProjetoFinal.c:505: printDisplay("Quantos ml?");
   08A1 90s00r5E           2062 	mov	dptr,#__str_7
   08A4 75 F0 80           2063 	mov	b,#0x80
   08A7 12s01r93           2064 	lcall	_printDisplay
                           2065 ;	ProjetoFinal.c:506: line(2);
   08AA 90 00 02           2066 	mov	dptr,#0x0002
   08AD 12s01rDA           2067 	lcall	_line
                           2068 ;	ProjetoFinal.c:507: printDisplay("(0000-9999):");
   08B0 90s00r6A           2069 	mov	dptr,#__str_8
   08B3 75 F0 80           2070 	mov	b,#0x80
   08B6 12s01r93           2071 	lcall	_printDisplay
                           2072 ;	ProjetoFinal.c:509: qtd[0] = Key_ASCII2BIN(NovaTeclaKeyDown());
   08B9 12s00rB6           2073 	lcall	_NovaTeclaKeyDown
   08BC 12s01r1C           2074 	lcall	_Key_ASCII2BIN
   08BF E5 82              2075 	mov	a,dpl
   08C1 D0 02              2076 	pop	ar2
   08C3 F5*01              2077 	mov	_qtd,a
                           2078 ;	ProjetoFinal.c:510: while ( (qtd[0] < 0 || qtd[0] > 9) && qtd[0] != 0xF )
   08C5                    2079 00104$:
   08C5 E5*01              2080 	mov	a,_qtd
   08C7 FB                 2081 	mov	r3,a
   08C8 20 E7 0C           2082 	jb	acc.7,00103$
   08CB C3                 2083 	clr	c
   08CC 74 89              2084 	mov	a,#(0x09 ^ 0x80)
   08CE 8B F0              2085 	mov	b,r3
   08D0 63 F0 80           2086 	xrl	b,#0x80
   08D3 95 F0              2087 	subb	a,b
   08D5 50 17              2088 	jnc	00106$
   08D7                    2089 00103$:
   08D7 74 0F              2090 	mov	a,#0x0F
   08D9 B5*01 02           2091 	cjne	a,_qtd,00279$
   08DC 80 10              2092 	sjmp	00106$
   08DE                    2093 00279$:
                           2094 ;	ProjetoFinal.c:511: qtd[0] = Key_ASCII2BIN(NovaTeclaKeyDown());
   08DE C0 02              2095 	push	ar2
   08E0 12s00rB6           2096 	lcall	_NovaTeclaKeyDown
   08E3 12s01r1C           2097 	lcall	_Key_ASCII2BIN
   08E6 E5 82              2098 	mov	a,dpl
   08E8 D0 02              2099 	pop	ar2
   08EA F5*01              2100 	mov	_qtd,a
   08EC 80 D7              2101 	sjmp	00104$
   08EE                    2102 00106$:
                           2103 ;	ProjetoFinal.c:512: if (qtd[0] == 0xF)
   08EE AB*01              2104 	mov	r3,_qtd
   08F0 BB 0F 02           2105 	cjne	r3,#0x0F,00280$
   08F3 80 A7              2106 	sjmp	00101$
   08F5                    2107 00280$:
                           2108 ;	ProjetoFinal.c:514: displaydata(qtd[0] + 0x30);
   08F5 EB                 2109 	mov	a,r3
   08F6 33                 2110 	rlc	a
   08F7 95 E0              2111 	subb	a,acc
   08F9 FC                 2112 	mov	r4,a
   08FA 74 30              2113 	mov	a,#0x30
   08FC 2B                 2114 	add	a,r3
   08FD F5 82              2115 	mov	dpl,a
   08FF E4                 2116 	clr	a
   0900 3C                 2117 	addc	a,r4
   0901 F5 83              2118 	mov	dph,a
   0903 C0 02              2119 	push	ar2
   0905 12s01r81           2120 	lcall	_displaydata
                           2121 ;	ProjetoFinal.c:515: qtd[1] = Key_ASCII2BIN(NovaTeclaKeyDown());
   0908 12s00rB6           2122 	lcall	_NovaTeclaKeyDown
   090B 12s01r1C           2123 	lcall	_Key_ASCII2BIN
   090E E5 82              2124 	mov	a,dpl
   0910 D0 02              2125 	pop	ar2
   0912 F5*02              2126 	mov	(_qtd + 0x0001),a
                           2127 ;	ProjetoFinal.c:516: while ( (qtd[1] < 0 || qtd[1] > 9) && qtd[1] != 0xF )
   0914                    2128 00111$:
   0914 E5*02              2129 	mov	a,(_qtd + 0x0001)
   0916 FB                 2130 	mov	r3,a
   0917 20 E7 0C           2131 	jb	acc.7,00110$
   091A C3                 2132 	clr	c
   091B 74 89              2133 	mov	a,#(0x09 ^ 0x80)
   091D 8B F0              2134 	mov	b,r3
   091F 63 F0 80           2135 	xrl	b,#0x80
   0922 95 F0              2136 	subb	a,b
   0924 50 17              2137 	jnc	00113$
   0926                    2138 00110$:
   0926 74 0F              2139 	mov	a,#0x0F
   0928 B5*02 02           2140 	cjne	a,(_qtd + 0x0001),00283$
   092B 80 10              2141 	sjmp	00113$
   092D                    2142 00283$:
                           2143 ;	ProjetoFinal.c:517: qtd[1] = Key_ASCII2BIN(NovaTeclaKeyDown());
   092D C0 02              2144 	push	ar2
   092F 12s00rB6           2145 	lcall	_NovaTeclaKeyDown
   0932 12s01r1C           2146 	lcall	_Key_ASCII2BIN
   0935 E5 82              2147 	mov	a,dpl
   0937 D0 02              2148 	pop	ar2
   0939 F5*02              2149 	mov	(_qtd + 0x0001),a
   093B 80 D7              2150 	sjmp	00111$
   093D                    2151 00113$:
                           2152 ;	ProjetoFinal.c:518: if (qtd[1] == 0xF)
   093D AB*02              2153 	mov	r3,(_qtd + 0x0001)
   093F BB 0F 03           2154 	cjne	r3,#0x0F,00284$
   0942 02s08r9C           2155 	ljmp	00101$
   0945                    2156 00284$:
                           2157 ;	ProjetoFinal.c:520: displaydata(qtd[1] + 0x30);
   0945 EB                 2158 	mov	a,r3
   0946 33                 2159 	rlc	a
   0947 95 E0              2160 	subb	a,acc
   0949 FC                 2161 	mov	r4,a
   094A 74 30              2162 	mov	a,#0x30
   094C 2B                 2163 	add	a,r3
   094D F5 82              2164 	mov	dpl,a
   094F E4                 2165 	clr	a
   0950 3C                 2166 	addc	a,r4
   0951 F5 83              2167 	mov	dph,a
   0953 C0 02              2168 	push	ar2
   0955 12s01r81           2169 	lcall	_displaydata
                           2170 ;	ProjetoFinal.c:521: qtd[2] = Key_ASCII2BIN(NovaTeclaKeyDown());
   0958 12s00rB6           2171 	lcall	_NovaTeclaKeyDown
   095B 12s01r1C           2172 	lcall	_Key_ASCII2BIN
   095E E5 82              2173 	mov	a,dpl
   0960 D0 02              2174 	pop	ar2
   0962 F5*03              2175 	mov	(_qtd + 0x0002),a
                           2176 ;	ProjetoFinal.c:522: while ( (qtd[2] < 0 || qtd[2] > 9) && qtd[2] != 0xF )
   0964                    2177 00118$:
   0964 E5*03              2178 	mov	a,(_qtd + 0x0002)
   0966 FB                 2179 	mov	r3,a
   0967 20 E7 0C           2180 	jb	acc.7,00117$
   096A C3                 2181 	clr	c
   096B 74 89              2182 	mov	a,#(0x09 ^ 0x80)
   096D 8B F0              2183 	mov	b,r3
   096F 63 F0 80           2184 	xrl	b,#0x80
   0972 95 F0              2185 	subb	a,b
   0974 50 17              2186 	jnc	00120$
   0976                    2187 00117$:
   0976 74 0F              2188 	mov	a,#0x0F
   0978 B5*03 02           2189 	cjne	a,(_qtd + 0x0002),00287$
   097B 80 10              2190 	sjmp	00120$
   097D                    2191 00287$:
                           2192 ;	ProjetoFinal.c:523: qtd[2] = Key_ASCII2BIN(NovaTeclaKeyDown());
   097D C0 02              2193 	push	ar2
   097F 12s00rB6           2194 	lcall	_NovaTeclaKeyDown
   0982 12s01r1C           2195 	lcall	_Key_ASCII2BIN
   0985 E5 82              2196 	mov	a,dpl
   0987 D0 02              2197 	pop	ar2
   0989 F5*03              2198 	mov	(_qtd + 0x0002),a
   098B 80 D7              2199 	sjmp	00118$
   098D                    2200 00120$:
                           2201 ;	ProjetoFinal.c:524: if (qtd[2] == 0xF)
   098D AB*03              2202 	mov	r3,(_qtd + 0x0002)
   098F BB 0F 03           2203 	cjne	r3,#0x0F,00288$
   0992 02s08r9C           2204 	ljmp	00101$
   0995                    2205 00288$:
                           2206 ;	ProjetoFinal.c:526: displaydata(qtd[2] + 0x30);
   0995 EB                 2207 	mov	a,r3
   0996 33                 2208 	rlc	a
   0997 95 E0              2209 	subb	a,acc
   0999 FC                 2210 	mov	r4,a
   099A 74 30              2211 	mov	a,#0x30
   099C 2B                 2212 	add	a,r3
   099D F5 82              2213 	mov	dpl,a
   099F E4                 2214 	clr	a
   09A0 3C                 2215 	addc	a,r4
   09A1 F5 83              2216 	mov	dph,a
   09A3 C0 02              2217 	push	ar2
   09A5 12s01r81           2218 	lcall	_displaydata
                           2219 ;	ProjetoFinal.c:527: qtd[3] = Key_ASCII2BIN(NovaTeclaKeyDown());
   09A8 12s00rB6           2220 	lcall	_NovaTeclaKeyDown
   09AB 12s01r1C           2221 	lcall	_Key_ASCII2BIN
   09AE E5 82              2222 	mov	a,dpl
   09B0 D0 02              2223 	pop	ar2
   09B2 F5*04              2224 	mov	(_qtd + 0x0003),a
                           2225 ;	ProjetoFinal.c:528: while ( (qtd[3] < 0 || qtd[3] > 9) && qtd[3] != 0xF )
   09B4                    2226 00125$:
   09B4 E5*04              2227 	mov	a,(_qtd + 0x0003)
   09B6 FB                 2228 	mov	r3,a
   09B7 20 E7 0C           2229 	jb	acc.7,00124$
   09BA C3                 2230 	clr	c
   09BB 74 89              2231 	mov	a,#(0x09 ^ 0x80)
   09BD 8B F0              2232 	mov	b,r3
   09BF 63 F0 80           2233 	xrl	b,#0x80
   09C2 95 F0              2234 	subb	a,b
   09C4 50 17              2235 	jnc	00127$
   09C6                    2236 00124$:
   09C6 74 0F              2237 	mov	a,#0x0F
   09C8 B5*04 02           2238 	cjne	a,(_qtd + 0x0003),00291$
   09CB 80 10              2239 	sjmp	00127$
   09CD                    2240 00291$:
                           2241 ;	ProjetoFinal.c:529: qtd[3] = Key_ASCII2BIN(NovaTeclaKeyDown());
   09CD C0 02              2242 	push	ar2
   09CF 12s00rB6           2243 	lcall	_NovaTeclaKeyDown
   09D2 12s01r1C           2244 	lcall	_Key_ASCII2BIN
   09D5 E5 82              2245 	mov	a,dpl
   09D7 D0 02              2246 	pop	ar2
   09D9 F5*04              2247 	mov	(_qtd + 0x0003),a
   09DB 80 D7              2248 	sjmp	00125$
   09DD                    2249 00127$:
                           2250 ;	ProjetoFinal.c:530: if (qtd[3] == 0xF)
   09DD AB*04              2251 	mov	r3,(_qtd + 0x0003)
   09DF BB 0F 03           2252 	cjne	r3,#0x0F,00292$
   09E2 02s08r9C           2253 	ljmp	00101$
   09E5                    2254 00292$:
                           2255 ;	ProjetoFinal.c:532: displaydata(qtd[3] + 0x30);
   09E5 EB                 2256 	mov	a,r3
   09E6 33                 2257 	rlc	a
   09E7 95 E0              2258 	subb	a,acc
   09E9 FC                 2259 	mov	r4,a
   09EA 74 30              2260 	mov	a,#0x30
   09EC 2B                 2261 	add	a,r3
   09ED F5 82              2262 	mov	dpl,a
   09EF E4                 2263 	clr	a
   09F0 3C                 2264 	addc	a,r4
   09F1 F5 83              2265 	mov	dph,a
   09F3 C0 02              2266 	push	ar2
   09F5 12s01r81           2267 	lcall	_displaydata
                           2268 ;	ProjetoFinal.c:533: tecla = Key_ASCII2BIN(NovaTeclaKeyDown());
   09F8 12s00rB6           2269 	lcall	_NovaTeclaKeyDown
   09FB 12s01r1C           2270 	lcall	_Key_ASCII2BIN
   09FE AB 82              2271 	mov	r3,dpl
   0A00 D0 02              2272 	pop	ar2
                           2273 ;	ProjetoFinal.c:534: while (tecla != 0xE && tecla != 0xF)
   0A02                    2274 00131$:
   0A02 BB 0E 02           2275 	cjne	r3,#0x0E,00293$
   0A05 80 13              2276 	sjmp	00133$
   0A07                    2277 00293$:
   0A07 BB 0F 02           2278 	cjne	r3,#0x0F,00294$
   0A0A 80 0E              2279 	sjmp	00133$
   0A0C                    2280 00294$:
                           2281 ;	ProjetoFinal.c:535: tecla = Key_ASCII2BIN(NovaTeclaKeyDown());
   0A0C C0 02              2282 	push	ar2
   0A0E 12s00rB6           2283 	lcall	_NovaTeclaKeyDown
   0A11 12s01r1C           2284 	lcall	_Key_ASCII2BIN
   0A14 AB 82              2285 	mov	r3,dpl
   0A16 D0 02              2286 	pop	ar2
   0A18 80 E8              2287 	sjmp	00131$
   0A1A                    2288 00133$:
                           2289 ;	ProjetoFinal.c:536: if (tecla == 0xF)
   0A1A BB 0F 03           2290 	cjne	r3,#0x0F,00295$
   0A1D 02s08r9C           2291 	ljmp	00101$
   0A20                    2292 00295$:
                           2293 ;	ProjetoFinal.c:538: if (tecla == 0xE)
   0A20 BB 0E 6B           2294 	cjne	r3,#0x0E,00138$
                           2295 ;	ProjetoFinal.c:539: qtd_real = qtd[0]*1000 + qtd[1]*100+qtd[2]*10+qtd[3];
   0A23 E5*01              2296 	mov	a,_qtd
   0A25 F5*00              2297 	mov	__mulint_PARM_2,a
   0A27 33                 2298 	rlc	a
   0A28 95 E0              2299 	subb	a,acc
   0A2A F5*01              2300 	mov	(__mulint_PARM_2 + 1),a
   0A2C 90 03 E8           2301 	mov	dptr,#0x03E8
   0A2F C0 02              2302 	push	ar2
   0A31 12s00r00           2303 	lcall	__mulint
   0A34 AC 82              2304 	mov	r4,dpl
   0A36 AD 83              2305 	mov	r5,dph
   0A38 D0 02              2306 	pop	ar2
   0A3A C2 D5              2307 	clr	F0
   0A3C 75 F0 64           2308 	mov	b,#0x64
   0A3F E5*02              2309 	mov	a,(_qtd + 0x0001)
   0A41 30 E7 04           2310 	jnb	acc.7,00298$
   0A44 B2 D5              2311 	cpl	F0
   0A46 F4                 2312 	cpl	a
   0A47 04                 2313 	inc	a
   0A48                    2314 00298$:
   0A48 A4                 2315 	mul	ab
   0A49 30 D5 0A           2316 	jnb	F0,00299$
   0A4C F4                 2317 	cpl	a
   0A4D 24 01              2318 	add	a,#0x01
   0A4F C5 F0              2319 	xch	a,b
   0A51 F4                 2320 	cpl	a
   0A52 34 00              2321 	addc	a,#0x00
   0A54 C5 F0              2322 	xch	a,b
   0A56                    2323 00299$:
   0A56 2C                 2324 	add	a,r4
   0A57 FC                 2325 	mov	r4,a
   0A58 ED                 2326 	mov	a,r5
   0A59 35 F0              2327 	addc	a,b
   0A5B FD                 2328 	mov	r5,a
   0A5C C2 D5              2329 	clr	F0
   0A5E 75 F0 0A           2330 	mov	b,#0x0a
   0A61 E5*03              2331 	mov	a,(_qtd + 0x0002)
   0A63 30 E7 04           2332 	jnb	acc.7,00300$
   0A66 B2 D5              2333 	cpl	F0
   0A68 F4                 2334 	cpl	a
   0A69 04                 2335 	inc	a
   0A6A                    2336 00300$:
   0A6A A4                 2337 	mul	ab
   0A6B 30 D5 0A           2338 	jnb	F0,00301$
   0A6E F4                 2339 	cpl	a
   0A6F 24 01              2340 	add	a,#0x01
   0A71 C5 F0              2341 	xch	a,b
   0A73 F4                 2342 	cpl	a
   0A74 34 00              2343 	addc	a,#0x00
   0A76 C5 F0              2344 	xch	a,b
   0A78                    2345 00301$:
   0A78 2C                 2346 	add	a,r4
   0A79 FC                 2347 	mov	r4,a
   0A7A ED                 2348 	mov	a,r5
   0A7B 35 F0              2349 	addc	a,b
   0A7D FD                 2350 	mov	r5,a
   0A7E AE*04              2351 	mov	r6,(_qtd + 0x0003)
   0A80 E5*04              2352 	mov	a,(_qtd + 0x0003)
   0A82 33                 2353 	rlc	a
   0A83 95 E0              2354 	subb	a,acc
   0A85 FF                 2355 	mov	r7,a
   0A86 EE                 2356 	mov	a,r6
   0A87 2C                 2357 	add	a,r4
   0A88 F5*05              2358 	mov	_qtd_real,a
   0A8A EF                 2359 	mov	a,r7
   0A8B 3D                 2360 	addc	a,r5
   0A8C F5*06              2361 	mov	(_qtd_real + 1),a
                           2362 ;	ProjetoFinal.c:542: INICIO_PROG_ALARM_H:
   0A8E                    2363 00138$:
                           2364 ;	ProjetoFinal.c:544: cleardisplay();
   0A8E C0 02              2365 	push	ar2
   0A90 12s01rD4           2366 	lcall	_cleardisplay
                           2367 ;	ProjetoFinal.c:545: printDisplay("HoraAl(00-23):");
   0A93 90s00r77           2368 	mov	dptr,#__str_9
   0A96 75 F0 80           2369 	mov	b,#0x80
   0A99 12s01r93           2370 	lcall	_printDisplay
                           2371 ;	ProjetoFinal.c:546: aux[0] = Key_ASCII2BIN(NovaTeclaKeyDown());
   0A9C 12s00rB6           2372 	lcall	_NovaTeclaKeyDown
   0A9F 12s01r1C           2373 	lcall	_Key_ASCII2BIN
   0AA2 E5 82              2374 	mov	a,dpl
   0AA4 D0 02              2375 	pop	ar2
   0AA6 F5*11              2376 	mov	_progAlarm_aux_1_1,a
                           2377 ;	ProjetoFinal.c:547: while ( (aux[0] < 0 || aux[0] > 9) && aux[0] != 0xF )
   0AA8                    2378 00141$:
   0AA8 E5*11              2379 	mov	a,_progAlarm_aux_1_1
   0AAA 20 E7 0D           2380 	jb	acc.7,00140$
   0AAD C3                 2381 	clr	c
   0AAE 74 89              2382 	mov	a,#(0x09 ^ 0x80)
   0AB0 85*11 F0           2383 	mov	b,_progAlarm_aux_1_1
   0AB3 63 F0 80           2384 	xrl	b,#0x80
   0AB6 95 F0              2385 	subb	a,b
   0AB8 50 17              2386 	jnc	00143$
   0ABA                    2387 00140$:
   0ABA 74 0F              2388 	mov	a,#0x0F
   0ABC B5*11 02           2389 	cjne	a,_progAlarm_aux_1_1,00304$
   0ABF 80 10              2390 	sjmp	00143$
   0AC1                    2391 00304$:
                           2392 ;	ProjetoFinal.c:548: aux[0] = Key_ASCII2BIN(NovaTeclaKeyDown());
   0AC1 C0 02              2393 	push	ar2
   0AC3 12s00rB6           2394 	lcall	_NovaTeclaKeyDown
   0AC6 12s01r1C           2395 	lcall	_Key_ASCII2BIN
   0AC9 E5 82              2396 	mov	a,dpl
   0ACB D0 02              2397 	pop	ar2
   0ACD F5*11              2398 	mov	_progAlarm_aux_1_1,a
   0ACF 80 D7              2399 	sjmp	00141$
   0AD1                    2400 00143$:
                           2401 ;	ProjetoFinal.c:549: if (aux[0] == 0xF)
   0AD1 74 0F              2402 	mov	a,#0x0F
   0AD3 B5*11 02           2403 	cjne	a,_progAlarm_aux_1_1,00305$
   0AD6 80 B6              2404 	sjmp	00138$
   0AD8                    2405 00305$:
                           2406 ;	ProjetoFinal.c:552: displaydata(aux[0] + 0x30);
   0AD8 E5*11              2407 	mov	a,_progAlarm_aux_1_1
   0ADA FC                 2408 	mov	r4,a
   0ADB 33                 2409 	rlc	a
   0ADC 95 E0              2410 	subb	a,acc
   0ADE FD                 2411 	mov	r5,a
   0ADF 74 30              2412 	mov	a,#0x30
   0AE1 2C                 2413 	add	a,r4
   0AE2 F5 82              2414 	mov	dpl,a
   0AE4 E4                 2415 	clr	a
   0AE5 3D                 2416 	addc	a,r5
   0AE6 F5 83              2417 	mov	dph,a
   0AE8 C0 02              2418 	push	ar2
   0AEA 12s01r81           2419 	lcall	_displaydata
                           2420 ;	ProjetoFinal.c:553: aux[1] = Key_ASCII2BIN(NovaTeclaKeyDown());
   0AED 12s00rB6           2421 	lcall	_NovaTeclaKeyDown
   0AF0 12s01r1C           2422 	lcall	_Key_ASCII2BIN
   0AF3 E5 82              2423 	mov	a,dpl
   0AF5 D0 02              2424 	pop	ar2
   0AF7 F5*12              2425 	mov	(_progAlarm_aux_1_1 + 0x0001),a
                           2426 ;	ProjetoFinal.c:554: while ( (aux[1] < 0 || aux[1] > 9) && aux[1] != 0xF )
   0AF9                    2427 00148$:
   0AF9 E5*12              2428 	mov	a,(_progAlarm_aux_1_1 + 0x0001)
   0AFB 20 E7 0D           2429 	jb	acc.7,00147$
   0AFE C3                 2430 	clr	c
   0AFF 74 89              2431 	mov	a,#(0x09 ^ 0x80)
   0B01 85*12 F0           2432 	mov	b,(_progAlarm_aux_1_1 + 0x0001)
   0B04 63 F0 80           2433 	xrl	b,#0x80
   0B07 95 F0              2434 	subb	a,b
   0B09 50 17              2435 	jnc	00150$
   0B0B                    2436 00147$:
   0B0B 74 0F              2437 	mov	a,#0x0F
   0B0D B5*12 02           2438 	cjne	a,(_progAlarm_aux_1_1 + 0x0001),00308$
   0B10 80 10              2439 	sjmp	00150$
   0B12                    2440 00308$:
                           2441 ;	ProjetoFinal.c:555: aux[1] = Key_ASCII2BIN(NovaTeclaKeyDown());
   0B12 C0 02              2442 	push	ar2
   0B14 12s00rB6           2443 	lcall	_NovaTeclaKeyDown
   0B17 12s01r1C           2444 	lcall	_Key_ASCII2BIN
   0B1A E5 82              2445 	mov	a,dpl
   0B1C D0 02              2446 	pop	ar2
   0B1E F5*12              2447 	mov	(_progAlarm_aux_1_1 + 0x0001),a
   0B20 80 D7              2448 	sjmp	00148$
   0B22                    2449 00150$:
                           2450 ;	ProjetoFinal.c:556: if (aux[1] == 0xF)
   0B22 74 0F              2451 	mov	a,#0x0F
   0B24 B5*12 03           2452 	cjne	a,(_progAlarm_aux_1_1 + 0x0001),00309$
   0B27 02s0Ar8E           2453 	ljmp	00138$
   0B2A                    2454 00309$:
                           2455 ;	ProjetoFinal.c:559: displaydata(aux[1] + 0x30);
   0B2A AC*12              2456 	mov	r4,(_progAlarm_aux_1_1 + 0x0001)
   0B2C E5*12              2457 	mov	a,(_progAlarm_aux_1_1 + 0x0001)
   0B2E 33                 2458 	rlc	a
   0B2F 95 E0              2459 	subb	a,acc
   0B31 FD                 2460 	mov	r5,a
   0B32 74 30              2461 	mov	a,#0x30
   0B34 2C                 2462 	add	a,r4
   0B35 F5 82              2463 	mov	dpl,a
   0B37 E4                 2464 	clr	a
   0B38 3D                 2465 	addc	a,r5
   0B39 F5 83              2466 	mov	dph,a
   0B3B C0 02              2467 	push	ar2
   0B3D 12s01r81           2468 	lcall	_displaydata
                           2469 ;	ProjetoFinal.c:560: tecla = Key_ASCII2BIN(NovaTeclaKeyDown());
   0B40 12s00rB6           2470 	lcall	_NovaTeclaKeyDown
   0B43 12s01r1C           2471 	lcall	_Key_ASCII2BIN
   0B46 AB 82              2472 	mov	r3,dpl
   0B48 D0 02              2473 	pop	ar2
                           2474 ;	ProjetoFinal.c:561: while (tecla != 0xE && tecla != 0xF)
   0B4A                    2475 00154$:
   0B4A BB 0E 02           2476 	cjne	r3,#0x0E,00310$
   0B4D 80 13              2477 	sjmp	00156$
   0B4F                    2478 00310$:
   0B4F BB 0F 02           2479 	cjne	r3,#0x0F,00311$
   0B52 80 0E              2480 	sjmp	00156$
   0B54                    2481 00311$:
                           2482 ;	ProjetoFinal.c:562: tecla = Key_ASCII2BIN(NovaTeclaKeyDown());
   0B54 C0 02              2483 	push	ar2
   0B56 12s00rB6           2484 	lcall	_NovaTeclaKeyDown
   0B59 12s01r1C           2485 	lcall	_Key_ASCII2BIN
   0B5C AB 82              2486 	mov	r3,dpl
   0B5E D0 02              2487 	pop	ar2
   0B60 80 E8              2488 	sjmp	00154$
   0B62                    2489 00156$:
                           2490 ;	ProjetoFinal.c:563: if (tecla == 0xF)
   0B62 BB 0F 03           2491 	cjne	r3,#0x0F,00312$
   0B65 02s0Ar8E           2492 	ljmp	00138$
   0B68                    2493 00312$:
                           2494 ;	ProjetoFinal.c:565: if (tecla == 0xE)
   0B68 BB 0E 0D           2495 	cjne	r3,#0x0E,00161$
                           2496 ;	ProjetoFinal.c:566: hoursAlarm = aux[0]*16 + aux[1];
   0B6B E5*11              2497 	mov	a,_progAlarm_aux_1_1
   0B6D C4                 2498 	swap	a
   0B6E 54 F0              2499 	anl	a,#0xf0
   0B70 FC                 2500 	mov	r4,a
   0B71 90 21 05           2501 	mov	dptr,#_hoursAlarm
   0B74 E5*12              2502 	mov	a,(_progAlarm_aux_1_1 + 0x0001)
   0B76 2C                 2503 	add	a,r4
   0B77 F0                 2504 	movx	@dptr,a
                           2505 ;	ProjetoFinal.c:569: INICIO_PROG_ALARM_M:
   0B78                    2506 00161$:
                           2507 ;	ProjetoFinal.c:571: cleardisplay();
   0B78 C0 02              2508 	push	ar2
   0B7A 12s01rD4           2509 	lcall	_cleardisplay
                           2510 ;	ProjetoFinal.c:572: printDisplay("MinAl(00-59): ");
   0B7D 90s00r86           2511 	mov	dptr,#__str_10
   0B80 75 F0 80           2512 	mov	b,#0x80
   0B83 12s01r93           2513 	lcall	_printDisplay
                           2514 ;	ProjetoFinal.c:573: aux[0] = Key_ASCII2BIN(NovaTeclaKeyDown());
   0B86 12s00rB6           2515 	lcall	_NovaTeclaKeyDown
   0B89 12s01r1C           2516 	lcall	_Key_ASCII2BIN
   0B8C E5 82              2517 	mov	a,dpl
   0B8E D0 02              2518 	pop	ar2
   0B90 F5*11              2519 	mov	_progAlarm_aux_1_1,a
                           2520 ;	ProjetoFinal.c:574: while ( (aux[0] < 0 || aux[0] > 9) && aux[0] != 0xF )
   0B92                    2521 00164$:
   0B92 E5*11              2522 	mov	a,_progAlarm_aux_1_1
   0B94 20 E7 0D           2523 	jb	acc.7,00163$
   0B97 C3                 2524 	clr	c
   0B98 74 89              2525 	mov	a,#(0x09 ^ 0x80)
   0B9A 85*11 F0           2526 	mov	b,_progAlarm_aux_1_1
   0B9D 63 F0 80           2527 	xrl	b,#0x80
   0BA0 95 F0              2528 	subb	a,b
   0BA2 50 17              2529 	jnc	00166$
   0BA4                    2530 00163$:
   0BA4 74 0F              2531 	mov	a,#0x0F
   0BA6 B5*11 02           2532 	cjne	a,_progAlarm_aux_1_1,00317$
   0BA9 80 10              2533 	sjmp	00166$
   0BAB                    2534 00317$:
                           2535 ;	ProjetoFinal.c:575: aux[0] = Key_ASCII2BIN(NovaTeclaKeyDown());
   0BAB C0 02              2536 	push	ar2
   0BAD 12s00rB6           2537 	lcall	_NovaTeclaKeyDown
   0BB0 12s01r1C           2538 	lcall	_Key_ASCII2BIN
   0BB3 E5 82              2539 	mov	a,dpl
   0BB5 D0 02              2540 	pop	ar2
   0BB7 F5*11              2541 	mov	_progAlarm_aux_1_1,a
   0BB9 80 D7              2542 	sjmp	00164$
   0BBB                    2543 00166$:
                           2544 ;	ProjetoFinal.c:576: if (aux[0] == 0xF)
   0BBB 74 0F              2545 	mov	a,#0x0F
   0BBD B5*11 02           2546 	cjne	a,_progAlarm_aux_1_1,00318$
   0BC0 80 B6              2547 	sjmp	00161$
   0BC2                    2548 00318$:
                           2549 ;	ProjetoFinal.c:579: displaydata(aux[0] + 0x30);
   0BC2 E5*11              2550 	mov	a,_progAlarm_aux_1_1
   0BC4 FC                 2551 	mov	r4,a
   0BC5 33                 2552 	rlc	a
   0BC6 95 E0              2553 	subb	a,acc
   0BC8 FD                 2554 	mov	r5,a
   0BC9 74 30              2555 	mov	a,#0x30
   0BCB 2C                 2556 	add	a,r4
   0BCC F5 82              2557 	mov	dpl,a
   0BCE E4                 2558 	clr	a
   0BCF 3D                 2559 	addc	a,r5
   0BD0 F5 83              2560 	mov	dph,a
   0BD2 C0 02              2561 	push	ar2
   0BD4 12s01r81           2562 	lcall	_displaydata
                           2563 ;	ProjetoFinal.c:580: aux[1] = Key_ASCII2BIN(NovaTeclaKeyDown());
   0BD7 12s00rB6           2564 	lcall	_NovaTeclaKeyDown
   0BDA 12s01r1C           2565 	lcall	_Key_ASCII2BIN
   0BDD E5 82              2566 	mov	a,dpl
   0BDF D0 02              2567 	pop	ar2
   0BE1 F5*12              2568 	mov	(_progAlarm_aux_1_1 + 0x0001),a
                           2569 ;	ProjetoFinal.c:581: while ( (aux[1] < 0 || aux[1] > 9) && aux[1] != 0xF )
   0BE3                    2570 00171$:
   0BE3 E5*12              2571 	mov	a,(_progAlarm_aux_1_1 + 0x0001)
   0BE5 20 E7 0D           2572 	jb	acc.7,00170$
   0BE8 C3                 2573 	clr	c
   0BE9 74 89              2574 	mov	a,#(0x09 ^ 0x80)
   0BEB 85*12 F0           2575 	mov	b,(_progAlarm_aux_1_1 + 0x0001)
   0BEE 63 F0 80           2576 	xrl	b,#0x80
   0BF1 95 F0              2577 	subb	a,b
   0BF3 50 17              2578 	jnc	00173$
   0BF5                    2579 00170$:
   0BF5 74 0F              2580 	mov	a,#0x0F
   0BF7 B5*12 02           2581 	cjne	a,(_progAlarm_aux_1_1 + 0x0001),00321$
   0BFA 80 10              2582 	sjmp	00173$
   0BFC                    2583 00321$:
                           2584 ;	ProjetoFinal.c:582: aux[1] = Key_ASCII2BIN(NovaTeclaKeyDown());
   0BFC C0 02              2585 	push	ar2
   0BFE 12s00rB6           2586 	lcall	_NovaTeclaKeyDown
   0C01 12s01r1C           2587 	lcall	_Key_ASCII2BIN
   0C04 E5 82              2588 	mov	a,dpl
   0C06 D0 02              2589 	pop	ar2
   0C08 F5*12              2590 	mov	(_progAlarm_aux_1_1 + 0x0001),a
   0C0A 80 D7              2591 	sjmp	00171$
   0C0C                    2592 00173$:
                           2593 ;	ProjetoFinal.c:583: if (aux[1] == 0xF)
   0C0C 74 0F              2594 	mov	a,#0x0F
   0C0E B5*12 03           2595 	cjne	a,(_progAlarm_aux_1_1 + 0x0001),00322$
   0C11 02s0Br78           2596 	ljmp	00161$
   0C14                    2597 00322$:
                           2598 ;	ProjetoFinal.c:586: displaydata(aux[1] + 0x30);
   0C14 AC*12              2599 	mov	r4,(_progAlarm_aux_1_1 + 0x0001)
   0C16 E5*12              2600 	mov	a,(_progAlarm_aux_1_1 + 0x0001)
   0C18 33                 2601 	rlc	a
   0C19 95 E0              2602 	subb	a,acc
   0C1B FD                 2603 	mov	r5,a
   0C1C 74 30              2604 	mov	a,#0x30
   0C1E 2C                 2605 	add	a,r4
   0C1F F5 82              2606 	mov	dpl,a
   0C21 E4                 2607 	clr	a
   0C22 3D                 2608 	addc	a,r5
   0C23 F5 83              2609 	mov	dph,a
   0C25 C0 02              2610 	push	ar2
   0C27 12s01r81           2611 	lcall	_displaydata
                           2612 ;	ProjetoFinal.c:587: tecla = Key_ASCII2BIN(NovaTeclaKeyDown());
   0C2A 12s00rB6           2613 	lcall	_NovaTeclaKeyDown
   0C2D 12s01r1C           2614 	lcall	_Key_ASCII2BIN
   0C30 AB 82              2615 	mov	r3,dpl
   0C32 D0 02              2616 	pop	ar2
                           2617 ;	ProjetoFinal.c:588: while (tecla != 0xE && tecla != 0xF)
   0C34                    2618 00177$:
   0C34 BB 0E 02           2619 	cjne	r3,#0x0E,00323$
   0C37 80 13              2620 	sjmp	00179$
   0C39                    2621 00323$:
   0C39 BB 0F 02           2622 	cjne	r3,#0x0F,00324$
   0C3C 80 0E              2623 	sjmp	00179$
   0C3E                    2624 00324$:
                           2625 ;	ProjetoFinal.c:589: tecla = Key_ASCII2BIN(NovaTeclaKeyDown());
   0C3E C0 02              2626 	push	ar2
   0C40 12s00rB6           2627 	lcall	_NovaTeclaKeyDown
   0C43 12s01r1C           2628 	lcall	_Key_ASCII2BIN
   0C46 AB 82              2629 	mov	r3,dpl
   0C48 D0 02              2630 	pop	ar2
   0C4A 80 E8              2631 	sjmp	00177$
   0C4C                    2632 00179$:
                           2633 ;	ProjetoFinal.c:590: if (tecla == 0xF)
   0C4C BB 0F 03           2634 	cjne	r3,#0x0F,00325$
   0C4F 02s0Br78           2635 	ljmp	00161$
   0C52                    2636 00325$:
                           2637 ;	ProjetoFinal.c:592: if (tecla == 0xE)
   0C52 BB 0E 0D           2638 	cjne	r3,#0x0E,00184$
                           2639 ;	ProjetoFinal.c:593: minAlarm = aux[0]*16 + aux[1];
   0C55 E5*11              2640 	mov	a,_progAlarm_aux_1_1
   0C57 C4                 2641 	swap	a
   0C58 54 F0              2642 	anl	a,#0xf0
   0C5A FC                 2643 	mov	r4,a
   0C5B 90 21 03           2644 	mov	dptr,#_minAlarm
   0C5E E5*12              2645 	mov	a,(_progAlarm_aux_1_1 + 0x0001)
   0C60 2C                 2646 	add	a,r4
   0C61 F0                 2647 	movx	@dptr,a
                           2648 ;	ProjetoFinal.c:595: INICIO_PROG_ALARM_S:
   0C62                    2649 00184$:
                           2650 ;	ProjetoFinal.c:597: cleardisplay();
   0C62 C0 02              2651 	push	ar2
   0C64 12s01rD4           2652 	lcall	_cleardisplay
                           2653 ;	ProjetoFinal.c:598: printDisplay("SegAl(00-59): ");
   0C67 90s00r95           2654 	mov	dptr,#__str_11
   0C6A 75 F0 80           2655 	mov	b,#0x80
   0C6D 12s01r93           2656 	lcall	_printDisplay
                           2657 ;	ProjetoFinal.c:599: aux[0] = Key_ASCII2BIN(NovaTeclaKeyDown());
   0C70 12s00rB6           2658 	lcall	_NovaTeclaKeyDown
   0C73 12s01r1C           2659 	lcall	_Key_ASCII2BIN
   0C76 E5 82              2660 	mov	a,dpl
   0C78 D0 02              2661 	pop	ar2
   0C7A F5*11              2662 	mov	_progAlarm_aux_1_1,a
                           2663 ;	ProjetoFinal.c:600: while ( (aux[0] < 0 || aux[0] > 9) && aux[0] != 0xF )
   0C7C                    2664 00187$:
   0C7C E5*11              2665 	mov	a,_progAlarm_aux_1_1
   0C7E 20 E7 0D           2666 	jb	acc.7,00186$
   0C81 C3                 2667 	clr	c
   0C82 74 89              2668 	mov	a,#(0x09 ^ 0x80)
   0C84 85*11 F0           2669 	mov	b,_progAlarm_aux_1_1
   0C87 63 F0 80           2670 	xrl	b,#0x80
   0C8A 95 F0              2671 	subb	a,b
   0C8C 50 17              2672 	jnc	00189$
   0C8E                    2673 00186$:
   0C8E 74 0F              2674 	mov	a,#0x0F
   0C90 B5*11 02           2675 	cjne	a,_progAlarm_aux_1_1,00330$
   0C93 80 10              2676 	sjmp	00189$
   0C95                    2677 00330$:
                           2678 ;	ProjetoFinal.c:601: aux[0] = Key_ASCII2BIN(NovaTeclaKeyDown());
   0C95 C0 02              2679 	push	ar2
   0C97 12s00rB6           2680 	lcall	_NovaTeclaKeyDown
   0C9A 12s01r1C           2681 	lcall	_Key_ASCII2BIN
   0C9D E5 82              2682 	mov	a,dpl
   0C9F D0 02              2683 	pop	ar2
   0CA1 F5*11              2684 	mov	_progAlarm_aux_1_1,a
   0CA3 80 D7              2685 	sjmp	00187$
   0CA5                    2686 00189$:
                           2687 ;	ProjetoFinal.c:602: if (aux[0] == 0xF)
   0CA5 74 0F              2688 	mov	a,#0x0F
   0CA7 B5*11 02           2689 	cjne	a,_progAlarm_aux_1_1,00331$
   0CAA 80 B6              2690 	sjmp	00184$
   0CAC                    2691 00331$:
                           2692 ;	ProjetoFinal.c:605: displaydata(aux[0] + 0x30);
   0CAC E5*11              2693 	mov	a,_progAlarm_aux_1_1
   0CAE FC                 2694 	mov	r4,a
   0CAF 33                 2695 	rlc	a
   0CB0 95 E0              2696 	subb	a,acc
   0CB2 FD                 2697 	mov	r5,a
   0CB3 74 30              2698 	mov	a,#0x30
   0CB5 2C                 2699 	add	a,r4
   0CB6 F5 82              2700 	mov	dpl,a
   0CB8 E4                 2701 	clr	a
   0CB9 3D                 2702 	addc	a,r5
   0CBA F5 83              2703 	mov	dph,a
   0CBC C0 02              2704 	push	ar2
   0CBE 12s01r81           2705 	lcall	_displaydata
                           2706 ;	ProjetoFinal.c:606: aux[1] = Key_ASCII2BIN(NovaTeclaKeyDown());
   0CC1 12s00rB6           2707 	lcall	_NovaTeclaKeyDown
   0CC4 12s01r1C           2708 	lcall	_Key_ASCII2BIN
   0CC7 E5 82              2709 	mov	a,dpl
   0CC9 D0 02              2710 	pop	ar2
   0CCB F5*12              2711 	mov	(_progAlarm_aux_1_1 + 0x0001),a
                           2712 ;	ProjetoFinal.c:607: while ( (aux[1] < 0 || aux[1] > 9) && aux[1] != 0xF )
   0CCD                    2713 00194$:
   0CCD E5*12              2714 	mov	a,(_progAlarm_aux_1_1 + 0x0001)
   0CCF 20 E7 0D           2715 	jb	acc.7,00193$
   0CD2 C3                 2716 	clr	c
   0CD3 74 89              2717 	mov	a,#(0x09 ^ 0x80)
   0CD5 85*12 F0           2718 	mov	b,(_progAlarm_aux_1_1 + 0x0001)
   0CD8 63 F0 80           2719 	xrl	b,#0x80
   0CDB 95 F0              2720 	subb	a,b
   0CDD 50 17              2721 	jnc	00196$
   0CDF                    2722 00193$:
   0CDF 74 0F              2723 	mov	a,#0x0F
   0CE1 B5*12 02           2724 	cjne	a,(_progAlarm_aux_1_1 + 0x0001),00334$
   0CE4 80 10              2725 	sjmp	00196$
   0CE6                    2726 00334$:
                           2727 ;	ProjetoFinal.c:608: aux[1] = Key_ASCII2BIN(NovaTeclaKeyDown());
   0CE6 C0 02              2728 	push	ar2
   0CE8 12s00rB6           2729 	lcall	_NovaTeclaKeyDown
   0CEB 12s01r1C           2730 	lcall	_Key_ASCII2BIN
   0CEE E5 82              2731 	mov	a,dpl
   0CF0 D0 02              2732 	pop	ar2
   0CF2 F5*12              2733 	mov	(_progAlarm_aux_1_1 + 0x0001),a
   0CF4 80 D7              2734 	sjmp	00194$
   0CF6                    2735 00196$:
                           2736 ;	ProjetoFinal.c:609: if (aux[1] == 0xF)
   0CF6 74 0F              2737 	mov	a,#0x0F
   0CF8 B5*12 03           2738 	cjne	a,(_progAlarm_aux_1_1 + 0x0001),00335$
   0CFB 02s0Cr62           2739 	ljmp	00184$
   0CFE                    2740 00335$:
                           2741 ;	ProjetoFinal.c:612: displaydata(aux[1] + 0x30);
   0CFE AC*12              2742 	mov	r4,(_progAlarm_aux_1_1 + 0x0001)
   0D00 E5*12              2743 	mov	a,(_progAlarm_aux_1_1 + 0x0001)
   0D02 33                 2744 	rlc	a
   0D03 95 E0              2745 	subb	a,acc
   0D05 FD                 2746 	mov	r5,a
   0D06 74 30              2747 	mov	a,#0x30
   0D08 2C                 2748 	add	a,r4
   0D09 F5 82              2749 	mov	dpl,a
   0D0B E4                 2750 	clr	a
   0D0C 3D                 2751 	addc	a,r5
   0D0D F5 83              2752 	mov	dph,a
   0D0F C0 02              2753 	push	ar2
   0D11 12s01r81           2754 	lcall	_displaydata
                           2755 ;	ProjetoFinal.c:613: tecla = Key_ASCII2BIN(NovaTeclaKeyDown());
   0D14 12s00rB6           2756 	lcall	_NovaTeclaKeyDown
   0D17 12s01r1C           2757 	lcall	_Key_ASCII2BIN
   0D1A AB 82              2758 	mov	r3,dpl
   0D1C D0 02              2759 	pop	ar2
                           2760 ;	ProjetoFinal.c:614: while (tecla != 0xE && tecla != 0xF)
   0D1E                    2761 00200$:
   0D1E BB 0E 02           2762 	cjne	r3,#0x0E,00336$
   0D21 80 13              2763 	sjmp	00202$
   0D23                    2764 00336$:
   0D23 BB 0F 02           2765 	cjne	r3,#0x0F,00337$
   0D26 80 0E              2766 	sjmp	00202$
   0D28                    2767 00337$:
                           2768 ;	ProjetoFinal.c:615: tecla = Key_ASCII2BIN(NovaTeclaKeyDown());
   0D28 C0 02              2769 	push	ar2
   0D2A 12s00rB6           2770 	lcall	_NovaTeclaKeyDown
   0D2D 12s01r1C           2771 	lcall	_Key_ASCII2BIN
   0D30 AB 82              2772 	mov	r3,dpl
   0D32 D0 02              2773 	pop	ar2
   0D34 80 E8              2774 	sjmp	00200$
   0D36                    2775 00202$:
                           2776 ;	ProjetoFinal.c:616: if (tecla == 0xF)
   0D36 BB 0F 03           2777 	cjne	r3,#0x0F,00338$
   0D39 02s0Cr62           2778 	ljmp	00184$
   0D3C                    2779 00338$:
                           2780 ;	ProjetoFinal.c:618: if (tecla == 0xE)
   0D3C BB 0E 0D           2781 	cjne	r3,#0x0E,00206$
                           2782 ;	ProjetoFinal.c:619: secAlarm = aux[0]*16 + aux[1];
   0D3F E5*11              2783 	mov	a,_progAlarm_aux_1_1
   0D41 C4                 2784 	swap	a
   0D42 54 F0              2785 	anl	a,#0xf0
   0D44 FB                 2786 	mov	r3,a
   0D45 90 21 01           2787 	mov	dptr,#_secAlarm
   0D48 E5*12              2788 	mov	a,(_progAlarm_aux_1_1 + 0x0001)
   0D4A 2B                 2789 	add	a,r3
   0D4B F0                 2790 	movx	@dptr,a
   0D4C                    2791 00206$:
                           2792 ;	ProjetoFinal.c:621: cleardisplay();
   0D4C C0 02              2793 	push	ar2
   0D4E 12s01rD4           2794 	lcall	_cleardisplay
                           2795 ;	ProjetoFinal.c:622: printDisplay("Ativar alarme?");
   0D51 90s00rA4           2796 	mov	dptr,#__str_12
   0D54 75 F0 80           2797 	mov	b,#0x80
   0D57 12s01r93           2798 	lcall	_printDisplay
                           2799 ;	ProjetoFinal.c:623: line(2);
   0D5A 90 00 02           2800 	mov	dptr,#0x0002
   0D5D 12s01rDA           2801 	lcall	_line
                           2802 ;	ProjetoFinal.c:624: printDisplay("0=Sim/1=Não");
   0D60 90s00rB3           2803 	mov	dptr,#__str_13
   0D63 75 F0 80           2804 	mov	b,#0x80
   0D66 12s01r93           2805 	lcall	_printDisplay
                           2806 ;	ProjetoFinal.c:625: aux[0] = Key_ASCII2BIN(NovaTeclaKeyDown());
   0D69 12s00rB6           2807 	lcall	_NovaTeclaKeyDown
   0D6C 12s01r1C           2808 	lcall	_Key_ASCII2BIN
   0D6F AB 82              2809 	mov	r3,dpl
   0D71 D0 02              2810 	pop	ar2
   0D73 8B*11              2811 	mov	_progAlarm_aux_1_1,r3
                           2812 ;	ProjetoFinal.c:627: if (aux[0] == 0x01)
   0D75 BB 01 0A           2813 	cjne	r3,#0x01,00208$
                           2814 ;	ProjetoFinal.c:628: regB &= 0xDF;
   0D78 90 21 0B           2815 	mov	dptr,#_regB
   0D7B E0                 2816 	movx	a,@dptr
   0D7C FB                 2817 	mov	r3,a
   0D7D 54 DF              2818 	anl	a,#0xDF
   0D7F F0                 2819 	movx	@dptr,a
   0D80 80 08              2820 	sjmp	00209$
   0D82                    2821 00208$:
                           2822 ;	ProjetoFinal.c:629: else regB |= 0x20;
   0D82 90 21 0B           2823 	mov	dptr,#_regB
   0D85 E0                 2824 	movx	a,@dptr
   0D86 FB                 2825 	mov	r3,a
   0D87 44 20              2826 	orl	a,#0x20
   0D89 F0                 2827 	movx	@dptr,a
   0D8A                    2828 00209$:
                           2829 ;	ProjetoFinal.c:631: regB &= 0x7F;
   0D8A 90 21 0B           2830 	mov	dptr,#_regB
   0D8D E0                 2831 	movx	a,@dptr
   0D8E 54 7F              2832 	anl	a,#0x7F
   0D90 F0                 2833 	movx	@dptr,a
                           2834 ;	ProjetoFinal.c:632: IE = auxIE;
   0D91 8A A8              2835 	mov	_IE,r2
                           2836 ;	ProjetoFinal.c:633: cleardisplay();
   0D93 12s01rD4           2837 	lcall	_cleardisplay
                           2838 ;	ProjetoFinal.c:634: printDisplay("Pronto");
   0D96 90s00rBF           2839 	mov	dptr,#__str_14
   0D99 75 F0 80           2840 	mov	b,#0x80
   0D9C 02s01r93           2841 	ljmp	_printDisplay
                           2842 ;------------------------------------------------------------
                           2843 ;Allocation info for local variables in function 'mostraDisplay'
                           2844 ;------------------------------------------------------------
                           2845 ;------------------------------------------------------------
                           2846 ;	ProjetoFinal.c:640: void mostraDisplay(){
                           2847 ;	-----------------------------------------
                           2848 ;	 function mostraDisplay
                           2849 ;	-----------------------------------------
   0D9F                    2850 _mostraDisplay:
                           2851 ;	ProjetoFinal.c:641: cleardisplay();
   0D9F 12s01rD4           2852 	lcall	_cleardisplay
                           2853 ;	ProjetoFinal.c:642: line(1);
   0DA2 90 00 01           2854 	mov	dptr,#0x0001
   0DA5 12s01rDA           2855 	lcall	_line
                           2856 ;	ProjetoFinal.c:643: printDisplay(BCDtoStr(dateOfMounth));
   0DA8 90 21 07           2857 	mov	dptr,#_dateOfMounth
   0DAB E0                 2858 	movx	a,@dptr
   0DAC F5 82              2859 	mov	dpl,a
   0DAE 12s00r0C           2860 	lcall	_BCDtoStr
   0DB1 12s01r93           2861 	lcall	_printDisplay
                           2862 ;	ProjetoFinal.c:644: printDisplay("/");
   0DB4 90s00rC6           2863 	mov	dptr,#__str_15
   0DB7 75 F0 80           2864 	mov	b,#0x80
   0DBA 12s01r93           2865 	lcall	_printDisplay
                           2866 ;	ProjetoFinal.c:645: printDisplay(BCDtoStr(mounth));
   0DBD 90 21 08           2867 	mov	dptr,#_mounth
   0DC0 E0                 2868 	movx	a,@dptr
   0DC1 F5 82              2869 	mov	dpl,a
   0DC3 12s00r0C           2870 	lcall	_BCDtoStr
   0DC6 12s01r93           2871 	lcall	_printDisplay
                           2872 ;	ProjetoFinal.c:646: printDisplay("/");
   0DC9 90s00rC6           2873 	mov	dptr,#__str_15
   0DCC 75 F0 80           2874 	mov	b,#0x80
   0DCF 12s01r93           2875 	lcall	_printDisplay
                           2876 ;	ProjetoFinal.c:647: printDisplay(BCDtoStr(year));
   0DD2 90 21 09           2877 	mov	dptr,#_year
   0DD5 E0                 2878 	movx	a,@dptr
   0DD6 F5 82              2879 	mov	dpl,a
   0DD8 12s00r0C           2880 	lcall	_BCDtoStr
   0DDB 12s01r93           2881 	lcall	_printDisplay
                           2882 ;	ProjetoFinal.c:648: printDisplay(" ");
   0DDE 90s00rC8           2883 	mov	dptr,#__str_16
   0DE1 75 F0 80           2884 	mov	b,#0x80
   0DE4 12s01r93           2885 	lcall	_printDisplay
                           2886 ;	ProjetoFinal.c:650: switch (dayOfWeek){
   0DE7 90 21 06           2887 	mov	dptr,#_dayOfWeek
   0DEA E0                 2888 	movx	a,@dptr
   0DEB FA                 2889 	mov	r2,a
   0DEC 74 07              2890 	mov	a,#0x07
   0DEE B5 02 00           2891 	cjne	a,ar2,00112$
   0DF1                    2892 00112$:
   0DF1 50 03              2893 	jnc	00113$
   0DF3 02s0Er60           2894 	ljmp	00108$
   0DF6                    2895 00113$:
   0DF6 EA                 2896 	mov	a,r2
   0DF7 2A                 2897 	add	a,r2
   0DF8 2A                 2898 	add	a,r2
   0DF9 90s0DrFD           2899 	mov	dptr,#00114$
   0DFC 73                 2900 	jmp	@a+dptr
   0DFD                    2901 00114$:
   0DFD 02s0Er60           2902 	ljmp	00108$
   0E00 02s0Er15           2903 	ljmp	00101$
   0E03 02s0Er20           2904 	ljmp	00102$
   0E06 02s0Er2B           2905 	ljmp	00103$
   0E09 02s0Er36           2906 	ljmp	00104$
   0E0C 02s0Er41           2907 	ljmp	00105$
   0E0F 02s0Er4C           2908 	ljmp	00106$
   0E12 02s0Er57           2909 	ljmp	00107$
                           2910 ;	ProjetoFinal.c:651: case 1:
   0E15                    2911 00101$:
                           2912 ;	ProjetoFinal.c:652: printDisplay("DOM");
   0E15 90s00rCA           2913 	mov	dptr,#__str_17
   0E18 75 F0 80           2914 	mov	b,#0x80
   0E1B 12s01r93           2915 	lcall	_printDisplay
                           2916 ;	ProjetoFinal.c:653: break;
                           2917 ;	ProjetoFinal.c:654: case 2:
   0E1E 80 40              2918 	sjmp	00108$
   0E20                    2919 00102$:
                           2920 ;	ProjetoFinal.c:655: printDisplay("SEG");
   0E20 90s00rCE           2921 	mov	dptr,#__str_18
   0E23 75 F0 80           2922 	mov	b,#0x80
   0E26 12s01r93           2923 	lcall	_printDisplay
                           2924 ;	ProjetoFinal.c:656: break;
                           2925 ;	ProjetoFinal.c:657: case 3:
   0E29 80 35              2926 	sjmp	00108$
   0E2B                    2927 00103$:
                           2928 ;	ProjetoFinal.c:658: printDisplay("TER");
   0E2B 90s00rD2           2929 	mov	dptr,#__str_19
   0E2E 75 F0 80           2930 	mov	b,#0x80
   0E31 12s01r93           2931 	lcall	_printDisplay
                           2932 ;	ProjetoFinal.c:659: break;
                           2933 ;	ProjetoFinal.c:660: case 4:
   0E34 80 2A              2934 	sjmp	00108$
   0E36                    2935 00104$:
                           2936 ;	ProjetoFinal.c:661: printDisplay("QUA");
   0E36 90s00rD6           2937 	mov	dptr,#__str_20
   0E39 75 F0 80           2938 	mov	b,#0x80
   0E3C 12s01r93           2939 	lcall	_printDisplay
                           2940 ;	ProjetoFinal.c:662: break;
                           2941 ;	ProjetoFinal.c:663: case 5:
   0E3F 80 1F              2942 	sjmp	00108$
   0E41                    2943 00105$:
                           2944 ;	ProjetoFinal.c:664: printDisplay("QUI");
   0E41 90s00rDA           2945 	mov	dptr,#__str_21
   0E44 75 F0 80           2946 	mov	b,#0x80
   0E47 12s01r93           2947 	lcall	_printDisplay
                           2948 ;	ProjetoFinal.c:665: break;
                           2949 ;	ProjetoFinal.c:666: case 6:
   0E4A 80 14              2950 	sjmp	00108$
   0E4C                    2951 00106$:
                           2952 ;	ProjetoFinal.c:667: printDisplay("SEX");
   0E4C 90s00rDE           2953 	mov	dptr,#__str_22
   0E4F 75 F0 80           2954 	mov	b,#0x80
   0E52 12s01r93           2955 	lcall	_printDisplay
                           2956 ;	ProjetoFinal.c:668: break;
                           2957 ;	ProjetoFinal.c:669: case 7:
   0E55 80 09              2958 	sjmp	00108$
   0E57                    2959 00107$:
                           2960 ;	ProjetoFinal.c:670: printDisplay("SAB");
   0E57 90s00rE2           2961 	mov	dptr,#__str_23
   0E5A 75 F0 80           2962 	mov	b,#0x80
   0E5D 12s01r93           2963 	lcall	_printDisplay
                           2964 ;	ProjetoFinal.c:672: }
   0E60                    2965 00108$:
                           2966 ;	ProjetoFinal.c:674: line(2);
   0E60 90 00 02           2967 	mov	dptr,#0x0002
   0E63 12s01rDA           2968 	lcall	_line
                           2969 ;	ProjetoFinal.c:676: printDisplay(BCDtoStr(hours));
   0E66 90 21 04           2970 	mov	dptr,#_hours
   0E69 E0                 2971 	movx	a,@dptr
   0E6A F5 82              2972 	mov	dpl,a
   0E6C 12s00r0C           2973 	lcall	_BCDtoStr
   0E6F 12s01r93           2974 	lcall	_printDisplay
                           2975 ;	ProjetoFinal.c:677: printDisplay(":");
   0E72 90s00rE6           2976 	mov	dptr,#__str_24
   0E75 75 F0 80           2977 	mov	b,#0x80
   0E78 12s01r93           2978 	lcall	_printDisplay
                           2979 ;	ProjetoFinal.c:678: printDisplay(BCDtoStr(minutes));
   0E7B 90 21 02           2980 	mov	dptr,#_minutes
   0E7E E0                 2981 	movx	a,@dptr
   0E7F F5 82              2982 	mov	dpl,a
   0E81 12s00r0C           2983 	lcall	_BCDtoStr
   0E84 12s01r93           2984 	lcall	_printDisplay
                           2985 ;	ProjetoFinal.c:679: printDisplay(":");
   0E87 90s00rE6           2986 	mov	dptr,#__str_24
   0E8A 75 F0 80           2987 	mov	b,#0x80
   0E8D 12s01r93           2988 	lcall	_printDisplay
                           2989 ;	ProjetoFinal.c:680: printDisplay(BCDtoStr(seconds));
   0E90 90 21 00           2990 	mov	dptr,#_seconds
   0E93 E0                 2991 	movx	a,@dptr
   0E94 F5 82              2992 	mov	dpl,a
   0E96 12s00r0C           2993 	lcall	_BCDtoStr
   0E99 12s01r93           2994 	lcall	_printDisplay
                           2995 ;	ProjetoFinal.c:681: printDisplay(" ");
   0E9C 90s00rC8           2996 	mov	dptr,#__str_16
   0E9F 75 F0 80           2997 	mov	b,#0x80
   0EA2 02s01r93           2998 	ljmp	_printDisplay
                           2999 ;------------------------------------------------------------
                           3000 ;Allocation info for local variables in function 'adc_read'
                           3001 ;------------------------------------------------------------
                           3002 ;------------------------------------------------------------
                           3003 ;	ProjetoFinal.c:685: unsigned int adc_read()
                           3004 ;	-----------------------------------------
                           3005 ;	 function adc_read
                           3006 ;	-----------------------------------------
   0EA5                    3007 _adc_read:
                           3008 ;	ProjetoFinal.c:687: return adc_data;
   0EA5 90 22 00           3009 	mov	dptr,#_adc_data
   0EA8 E0                 3010 	movx	a,@dptr
   0EA9 FA                 3011 	mov	r2,a
   0EAA 7B 00              3012 	mov	r3,#0x00
   0EAC 8A 82              3013 	mov	dpl,r2
   0EAE 8B 83              3014 	mov	dph,r3
   0EB0 22                 3015 	ret
                           3016 ;------------------------------------------------------------
                           3017 ;Allocation info for local variables in function 'get_temperature'
                           3018 ;------------------------------------------------------------
                           3019 ;adc                       Allocated to registers r2 r3 
                           3020 ;result                    Allocated to registers 
                           3021 ;------------------------------------------------------------
                           3022 ;	ProjetoFinal.c:690: unsigned int get_temperature()
                           3023 ;	-----------------------------------------
                           3024 ;	 function get_temperature
                           3025 ;	-----------------------------------------
   0EB1                    3026 _get_temperature:
                           3027 ;	ProjetoFinal.c:692: unsigned int adc = adc_read();
   0EB1 12s0ErA5           3028 	lcall	_adc_read
                           3029 ;	ProjetoFinal.c:693: unsigned int result = adc*2;
   0EB4 E5 83              3030 	mov	a,dph
   0EB6 C5 82              3031 	xch	a,dpl
   0EB8 25 E0              3032 	add	a,acc
   0EBA C5 82              3033 	xch	a,dpl
   0EBC 33                 3034 	rlc	a
   0EBD F5 83              3035 	mov	dph,a
                           3036 ;	ProjetoFinal.c:694: return result;
   0EBF 22                 3037 	ret
                           3038 ;------------------------------------------------------------
                           3039 ;Allocation info for local variables in function 'imprimeTemp'
                           3040 ;------------------------------------------------------------
                           3041 ;buffer                    Allocated with name '_imprimeTemp_buffer_1_1'
                           3042 ;temp                      Allocated to registers r2 r3 
                           3043 ;------------------------------------------------------------
                           3044 ;	ProjetoFinal.c:698: void imprimeTemp()
                           3045 ;	-----------------------------------------
                           3046 ;	 function imprimeTemp
                           3047 ;	-----------------------------------------
   0EC0                    3048 _imprimeTemp:
                           3049 ;	ProjetoFinal.c:701: unsigned int temp = get_temperature();
   0EC0 12s0ErB1           3050 	lcall	_get_temperature
   0EC3 AA 82              3051 	mov	r2,dpl
   0EC5 AB 83              3052 	mov	r3,dph
                           3053 ;	ProjetoFinal.c:702: if (temp < 230) liga_aquecedor();
   0EC7 C3                 3054 	clr	c
   0EC8 EA                 3055 	mov	a,r2
   0EC9 94 E6              3056 	subb	a,#0xE6
   0ECB EB                 3057 	mov	a,r3
   0ECC 94 00              3058 	subb	a,#0x00
   0ECE 50 0D              3059 	jnc	00104$
   0ED0 C0 02              3060 	push	ar2
   0ED2 C0 03              3061 	push	ar3
   0ED4 12s00r06           3062 	lcall	_liga_aquecedor
   0ED7 D0 03              3063 	pop	ar3
   0ED9 D0 02              3064 	pop	ar2
   0EDB 80 14              3065 	sjmp	00105$
   0EDD                    3066 00104$:
                           3067 ;	ProjetoFinal.c:703: else if (temp > 260) desliga_aquecedor();
   0EDD C3                 3068 	clr	c
   0EDE 74 04              3069 	mov	a,#0x04
   0EE0 9A                 3070 	subb	a,r2
   0EE1 74 01              3071 	mov	a,#0x01
   0EE3 9B                 3072 	subb	a,r3
   0EE4 50 0B              3073 	jnc	00105$
   0EE6 C0 02              3074 	push	ar2
   0EE8 C0 03              3075 	push	ar3
   0EEA 12s00r09           3076 	lcall	_desliga_aquecedor
   0EED D0 03              3077 	pop	ar3
   0EEF D0 02              3078 	pop	ar2
   0EF1                    3079 00105$:
                           3080 ;	ProjetoFinal.c:704: buffer[0] = temp/100 + 0x30;
   0EF1 75*00 64           3081 	mov	__divuint_PARM_2,#0x64
   0EF4 75*01 00           3082 	mov	(__divuint_PARM_2 + 1),#0x00
   0EF7 8A 82              3083 	mov	dpl,r2
   0EF9 8B 83              3084 	mov	dph,r3
   0EFB C0 02              3085 	push	ar2
   0EFD C0 03              3086 	push	ar3
   0EFF 12s00r00           3087 	lcall	__divuint
   0F02 AC 82              3088 	mov	r4,dpl
   0F04 D0 03              3089 	pop	ar3
   0F06 D0 02              3090 	pop	ar2
   0F08 74 30              3091 	mov	a,#0x30
   0F0A 2C                 3092 	add	a,r4
   0F0B F5*13              3093 	mov	_imprimeTemp_buffer_1_1,a
                           3094 ;	ProjetoFinal.c:705: buffer[1] = (temp/10)%10 + 0x30;
   0F0D 75*00 0A           3095 	mov	__divuint_PARM_2,#0x0A
   0F10 75*01 00           3096 	mov	(__divuint_PARM_2 + 1),#0x00
   0F13 8A 82              3097 	mov	dpl,r2
   0F15 8B 83              3098 	mov	dph,r3
   0F17 12s00r00           3099 	lcall	__divuint
   0F1A 75*00 0A           3100 	mov	__moduint_PARM_2,#0x0A
   0F1D 75*01 00           3101 	mov	(__moduint_PARM_2 + 1),#0x00
   0F20 12s00r00           3102 	lcall	__moduint
   0F23 AA 82              3103 	mov	r2,dpl
   0F25 74 30              3104 	mov	a,#0x30
   0F27 2A                 3105 	add	a,r2
   0F28 F5*14              3106 	mov	(_imprimeTemp_buffer_1_1 + 0x0001),a
                           3107 ;	ProjetoFinal.c:706: buffer[2] = 'o';
   0F2A 75*15 6F           3108 	mov	(_imprimeTemp_buffer_1_1 + 0x0002),#0x6F
                           3109 ;	ProjetoFinal.c:707: buffer[3] = 'C';
   0F2D 75*16 43           3110 	mov	(_imprimeTemp_buffer_1_1 + 0x0003),#0x43
                           3111 ;	ProjetoFinal.c:708: printDisplay(buffer);
   0F30 90s00r13           3112 	mov	dptr,#_imprimeTemp_buffer_1_1
   0F33 75 F0 40           3113 	mov	b,#0x40
   0F36 12s01r93           3114 	lcall	_printDisplay
                           3115 ;	ProjetoFinal.c:709: adc_data = 0x00;
   0F39 90 22 00           3116 	mov	dptr,#_adc_data
   0F3C E4                 3117 	clr	a
   0F3D F0                 3118 	movx	@dptr,a
   0F3E 22                 3119 	ret
                           3120 ;------------------------------------------------------------
                           3121 ;Allocation info for local variables in function 'mostratemperatura'
                           3122 ;------------------------------------------------------------
                           3123 ;------------------------------------------------------------
                           3124 ;	ProjetoFinal.c:712: void mostratemperatura(void){
                           3125 ;	-----------------------------------------
                           3126 ;	 function mostratemperatura
                           3127 ;	-----------------------------------------
   0F3F                    3128 _mostratemperatura:
                           3129 ;	ProjetoFinal.c:713: imprimeTemp();
   0F3F 02s0ErC0           3130 	ljmp	_imprimeTemp
                           3131 ;------------------------------------------------------------
                           3132 ;Allocation info for local variables in function 'int_EX0'
                           3133 ;------------------------------------------------------------
                           3134 ;AUX                       Allocated to registers r2 
                           3135 ;temp                      Allocated to registers r3 r4 
                           3136 ;------------------------------------------------------------
                           3137 ;	ProjetoFinal.c:720: void int_EX0 (void) __interrupt 0 __using 2
                           3138 ;	-----------------------------------------
                           3139 ;	 function int_EX0
                           3140 ;	-----------------------------------------
   0F42                    3141 _int_EX0:
                    0012   3142 	ar2 = 0x12
                    0013   3143 	ar3 = 0x13
                    0014   3144 	ar4 = 0x14
                    0015   3145 	ar5 = 0x15
                    0016   3146 	ar6 = 0x16
                    0017   3147 	ar7 = 0x17
                    0010   3148 	ar0 = 0x10
                    0011   3149 	ar1 = 0x11
   0F42 C0*00              3150 	push	bits
   0F44 C0 E0              3151 	push	acc
   0F46 C0 F0              3152 	push	b
   0F48 C0 82              3153 	push	dpl
   0F4A C0 83              3154 	push	dph
   0F4C C0 02              3155 	push	(0+2)
   0F4E C0 03              3156 	push	(0+3)
   0F50 C0 04              3157 	push	(0+4)
   0F52 C0 05              3158 	push	(0+5)
   0F54 C0 06              3159 	push	(0+6)
   0F56 C0 07              3160 	push	(0+7)
   0F58 C0 00              3161 	push	(0+0)
   0F5A C0 01              3162 	push	(0+1)
   0F5C C0 D0              3163 	push	psw
   0F5E 75 D0 10           3164 	mov	psw,#0x10
                           3165 ;	ProjetoFinal.c:724: AUX = regC; /* Retira caractere recebido do bufer */
   0F61 90 21 0C           3166 	mov	dptr,#_regC
   0F64 E0                 3167 	movx	a,@dptr
   0F65 FA                 3168 	mov	r2,a
                           3169 ;	ProjetoFinal.c:725: if ((AUX & 0x20) == 0x20) /*verifica se é interrupção de alarme*/
   0F66 74 20              3170 	mov	a,#0x20
   0F68 5A                 3171 	anl	a,r2
   0F69 FB                 3172 	mov	r3,a
   0F6A BB 20 02           3173 	cjne	r3,#0x20,00199$
   0F6D 80 03              3174 	sjmp	00200$
   0F6F                    3175 00199$:
   0F6F 02s12r55           3176 	ljmp	00158$
   0F72                    3177 00200$:
                           3178 ;	ProjetoFinal.c:727: temp = get_temperature();
   0F72 C0 12              3179 	push	ar2
   0F74 75 D0 00           3180 	mov	psw,#0x00
   0F77 12s0ErB1           3181 	lcall	_get_temperature
   0F7A 75 D0 10           3182 	mov	psw,#0x10
   0F7D AB 82              3183 	mov	r3,dpl
   0F7F AC 83              3184 	mov	r4,dph
   0F81 D0 12              3185 	pop	ar2
                           3186 ;	ProjetoFinal.c:728: adc_data = 0x00;
   0F83 90 22 00           3187 	mov	dptr,#_adc_data
   0F86 E4                 3188 	clr	a
   0F87 F0                 3189 	movx	@dptr,a
                           3190 ;	ProjetoFinal.c:729: if ((temp < 230 || temp > 260) && indicador == 0)
   0F88 C3                 3191 	clr	c
   0F89 EB                 3192 	mov	a,r3
   0F8A 94 E6              3193 	subb	a,#0xE6
   0F8C EC                 3194 	mov	a,r4
   0F8D 94 00              3195 	subb	a,#0x00
   0F8F 40 0B              3196 	jc	00156$
   0F91 74 04              3197 	mov	a,#0x04
   0F93 9B                 3198 	subb	a,r3
   0F94 74 01              3199 	mov	a,#0x01
   0F96 9C                 3200 	subb	a,r4
   0F97 40 03              3201 	jc	00202$
   0F99 02s10r28           3202 	ljmp	00153$
   0F9C                    3203 00202$:
   0F9C                    3204 00156$:
   0F9C E5*09              3205 	mov	a,_indicador
   0F9E 45*0A              3206 	orl	a,(_indicador + 1)
   0FA0 60 03              3207 	jz	00203$
   0FA2 02s10r28           3208 	ljmp	00153$
   0FA5                    3209 00203$:
                           3210 ;	ProjetoFinal.c:731: if (minAlarm % 0x10 == 9 && minAlarm != 0x59)
   0FA5 90 21 03           3211 	mov	dptr,#_minAlarm
   0FA8 E0                 3212 	movx	a,@dptr
   0FA9 FB                 3213 	mov	r3,a
   0FAA 53 13 0F           3214 	anl	ar3,#0x0F
   0FAD BB 09 20           3215 	cjne	r3,#0x09,00111$
   0FB0 90 21 03           3216 	mov	dptr,#_minAlarm
   0FB3 E0                 3217 	movx	a,@dptr
   0FB4 FB                 3218 	mov	r3,a
   0FB5 BB 59 02           3219 	cjne	r3,#0x59,00206$
   0FB8 80 16              3220 	sjmp	00111$
   0FBA                    3221 00206$:
                           3222 ;	ProjetoFinal.c:733: minAlarm &= 0xF0;
   0FBA 90 21 03           3223 	mov	dptr,#_minAlarm
   0FBD E0                 3224 	movx	a,@dptr
   0FBE 54 F0              3225 	anl	a,#0xF0
   0FC0 F0                 3226 	movx	@dptr,a
                           3227 ;	ProjetoFinal.c:734: minAlarm += 0x10;
   0FC1 90 21 03           3228 	mov	dptr,#_minAlarm
   0FC4 E0                 3229 	movx	a,@dptr
   0FC5 FB                 3230 	mov	r3,a
   0FC6 90 21 03           3231 	mov	dptr,#_minAlarm
   0FC9 74 10              3232 	mov	a,#0x10
   0FCB 2B                 3233 	add	a,r3
   0FCC F0                 3234 	movx	@dptr,a
   0FCD 02s12r42           3235 	ljmp	00154$
   0FD0                    3236 00111$:
                           3237 ;	ProjetoFinal.c:736: else if (minAlarm == 0x59)
   0FD0 90 21 03           3238 	mov	dptr,#_minAlarm
   0FD3 E0                 3239 	movx	a,@dptr
   0FD4 FB                 3240 	mov	r3,a
   0FD5 BB 59 43           3241 	cjne	r3,#0x59,00108$
                           3242 ;	ProjetoFinal.c:738: minAlarm = 0x00;
   0FD8 90 21 03           3243 	mov	dptr,#_minAlarm
   0FDB E4                 3244 	clr	a
   0FDC F0                 3245 	movx	@dptr,a
                           3246 ;	ProjetoFinal.c:739: if (hoursAlarm % 0x10 == 9)
   0FDD 90 21 05           3247 	mov	dptr,#_hoursAlarm
   0FE0 E0                 3248 	movx	a,@dptr
   0FE1 FB                 3249 	mov	r3,a
   0FE2 53 13 0F           3250 	anl	ar3,#0x0F
   0FE5 BB 09 16           3251 	cjne	r3,#0x09,00105$
                           3252 ;	ProjetoFinal.c:741: hoursAlarm &= 0xF0;
   0FE8 90 21 05           3253 	mov	dptr,#_hoursAlarm
   0FEB E0                 3254 	movx	a,@dptr
   0FEC 54 F0              3255 	anl	a,#0xF0
   0FEE F0                 3256 	movx	@dptr,a
                           3257 ;	ProjetoFinal.c:742: hoursAlarm += 0x10;
   0FEF 90 21 05           3258 	mov	dptr,#_hoursAlarm
   0FF2 E0                 3259 	movx	a,@dptr
   0FF3 FB                 3260 	mov	r3,a
   0FF4 90 21 05           3261 	mov	dptr,#_hoursAlarm
   0FF7 74 10              3262 	mov	a,#0x10
   0FF9 2B                 3263 	add	a,r3
   0FFA F0                 3264 	movx	@dptr,a
   0FFB 02s12r42           3265 	ljmp	00154$
   0FFE                    3266 00105$:
                           3267 ;	ProjetoFinal.c:744: else if (hoursAlarm == 0x23) hoursAlarm = 0x00;
   0FFE 90 21 05           3268 	mov	dptr,#_hoursAlarm
   1001 E0                 3269 	movx	a,@dptr
   1002 FB                 3270 	mov	r3,a
   1003 BB 23 08           3271 	cjne	r3,#0x23,00102$
   1006 90 21 05           3272 	mov	dptr,#_hoursAlarm
   1009 E4                 3273 	clr	a
   100A F0                 3274 	movx	@dptr,a
   100B 02s12r42           3275 	ljmp	00154$
   100E                    3276 00102$:
                           3277 ;	ProjetoFinal.c:745: else hoursAlarm += 0x01;
   100E 90 21 05           3278 	mov	dptr,#_hoursAlarm
   1011 E0                 3279 	movx	a,@dptr
   1012 FB                 3280 	mov	r3,a
   1013 90 21 05           3281 	mov	dptr,#_hoursAlarm
   1016 04                 3282 	inc	a
   1017 F0                 3283 	movx	@dptr,a
   1018 02s12r42           3284 	ljmp	00154$
   101B                    3285 00108$:
                           3286 ;	ProjetoFinal.c:747: else minAlarm += 0x01;
   101B 90 21 03           3287 	mov	dptr,#_minAlarm
   101E E0                 3288 	movx	a,@dptr
   101F FB                 3289 	mov	r3,a
   1020 90 21 03           3290 	mov	dptr,#_minAlarm
   1023 04                 3291 	inc	a
   1024 F0                 3292 	movx	@dptr,a
   1025 02s12r42           3293 	ljmp	00154$
   1028                    3294 00153$:
                           3295 ;	ProjetoFinal.c:749: else if (indicador == 0)
   1028 E5*09              3296 	mov	a,_indicador
   102A 45*0A              3297 	orl	a,(_indicador + 1)
   102C 60 03              3298 	jz	00213$
   102E 02s12r1F           3299 	ljmp	00150$
   1031                    3300 00213$:
                           3301 ;	ProjetoFinal.c:751: indicador = 1;
   1031 75*09 01           3302 	mov	_indicador,#0x01
   1034 75*0A 00           3303 	mov	(_indicador + 1),#0x00
                           3304 ;	ProjetoFinal.c:752: liga_motor();
   1037 C0 12              3305 	push	ar2
   1039 75 D0 00           3306 	mov	psw,#0x00
   103C 12s00r00           3307 	lcall	_liga_motor
   103F 75 D0 10           3308 	mov	psw,#0x10
                           3309 ;	ProjetoFinal.c:753: qtd_quociente = qtd_real % 900;
   1042 75*00 84           3310 	mov	__moduint_PARM_2,#0x84
   1045 75*01 03           3311 	mov	(__moduint_PARM_2 + 1),#0x03
   1048 85*05 82           3312 	mov	dpl,_qtd_real
   104B 85*06 83           3313 	mov	dph,(_qtd_real + 1)
   104E 75 D0 00           3314 	mov	psw,#0x00
   1051 12s00r00           3315 	lcall	__moduint
   1054 75 D0 10           3316 	mov	psw,#0x10
   1057 85 82*07           3317 	mov	_qtd_quociente,dpl
   105A 85 83*08           3318 	mov	(_qtd_quociente + 1),dph
                           3319 ;	ProjetoFinal.c:754: qtd_real /= 900;
   105D 75*00 84           3320 	mov	__divuint_PARM_2,#0x84
   1060 75*01 03           3321 	mov	(__divuint_PARM_2 + 1),#0x03
   1063 85*05 82           3322 	mov	dpl,_qtd_real
   1066 85*06 83           3323 	mov	dph,(_qtd_real + 1)
   1069 75 D0 00           3324 	mov	psw,#0x00
   106C 12s00r00           3325 	lcall	__divuint
   106F 75 D0 10           3326 	mov	psw,#0x10
   1072 85 82*05           3327 	mov	_qtd_real,dpl
   1075 85 83*06           3328 	mov	(_qtd_real + 1),dph
   1078 D0 12              3329 	pop	ar2
                           3330 ;	ProjetoFinal.c:755: for (i=0;i<qtd_real;i++)
   107A E4                 3331 	clr	a
   107B F5*0B              3332 	mov	_i,a
   107D F5*0C              3333 	mov	(_i + 1),a
   107F                    3334 00161$:
   107F C3                 3335 	clr	c
   1080 E5*0B              3336 	mov	a,_i
   1082 95*05              3337 	subb	a,_qtd_real
   1084 E5*0C              3338 	mov	a,(_i + 1)
   1086 95*06              3339 	subb	a,(_qtd_real + 1)
   1088 40 03              3340 	jc	00214$
   108A 02s11r14           3341 	ljmp	00164$
   108D                    3342 00214$:
                           3343 ;	ProjetoFinal.c:757: if (minAlarm % 0x10 == 9 && minAlarm != 0x59)
   108D 90 21 03           3344 	mov	dptr,#_minAlarm
   1090 E0                 3345 	movx	a,@dptr
   1091 FB                 3346 	mov	r3,a
   1092 53 13 0F           3347 	anl	ar3,#0x0F
   1095 BB 09 1F           3348 	cjne	r3,#0x09,00124$
   1098 90 21 03           3349 	mov	dptr,#_minAlarm
   109B E0                 3350 	movx	a,@dptr
   109C FB                 3351 	mov	r3,a
   109D BB 59 02           3352 	cjne	r3,#0x59,00217$
   10A0 80 15              3353 	sjmp	00124$
   10A2                    3354 00217$:
                           3355 ;	ProjetoFinal.c:759: minAlarm &= 0xF0;
   10A2 90 21 03           3356 	mov	dptr,#_minAlarm
   10A5 E0                 3357 	movx	a,@dptr
   10A6 54 F0              3358 	anl	a,#0xF0
   10A8 F0                 3359 	movx	@dptr,a
                           3360 ;	ProjetoFinal.c:760: minAlarm += 0x10;
   10A9 90 21 03           3361 	mov	dptr,#_minAlarm
   10AC E0                 3362 	movx	a,@dptr
   10AD FB                 3363 	mov	r3,a
   10AE 90 21 03           3364 	mov	dptr,#_minAlarm
   10B1 74 10              3365 	mov	a,#0x10
   10B3 2B                 3366 	add	a,r3
   10B4 F0                 3367 	movx	@dptr,a
   10B5 80 52              3368 	sjmp	00163$
   10B7                    3369 00124$:
                           3370 ;	ProjetoFinal.c:762: else if (minAlarm == 0x59)
   10B7 90 21 03           3371 	mov	dptr,#_minAlarm
   10BA E0                 3372 	movx	a,@dptr
   10BB FB                 3373 	mov	r3,a
   10BC BB 59 40           3374 	cjne	r3,#0x59,00121$
                           3375 ;	ProjetoFinal.c:764: minAlarm = 0x00;
   10BF 90 21 03           3376 	mov	dptr,#_minAlarm
   10C2 E4                 3377 	clr	a
   10C3 F0                 3378 	movx	@dptr,a
                           3379 ;	ProjetoFinal.c:765: if (hoursAlarm % 0x10 == 9)
   10C4 90 21 05           3380 	mov	dptr,#_hoursAlarm
   10C7 E0                 3381 	movx	a,@dptr
   10C8 FB                 3382 	mov	r3,a
   10C9 53 13 0F           3383 	anl	ar3,#0x0F
   10CC BB 09 15           3384 	cjne	r3,#0x09,00118$
                           3385 ;	ProjetoFinal.c:767: hoursAlarm &= 0xF0;
   10CF 90 21 05           3386 	mov	dptr,#_hoursAlarm
   10D2 E0                 3387 	movx	a,@dptr
   10D3 54 F0              3388 	anl	a,#0xF0
   10D5 F0                 3389 	movx	@dptr,a
                           3390 ;	ProjetoFinal.c:768: hoursAlarm += 0x10;
   10D6 90 21 05           3391 	mov	dptr,#_hoursAlarm
   10D9 E0                 3392 	movx	a,@dptr
   10DA FB                 3393 	mov	r3,a
   10DB 90 21 05           3394 	mov	dptr,#_hoursAlarm
   10DE 74 10              3395 	mov	a,#0x10
   10E0 2B                 3396 	add	a,r3
   10E1 F0                 3397 	movx	@dptr,a
   10E2 80 25              3398 	sjmp	00163$
   10E4                    3399 00118$:
                           3400 ;	ProjetoFinal.c:770: else if (hoursAlarm == 0x23) hoursAlarm = 0x00;
   10E4 90 21 05           3401 	mov	dptr,#_hoursAlarm
   10E7 E0                 3402 	movx	a,@dptr
   10E8 FB                 3403 	mov	r3,a
   10E9 BB 23 07           3404 	cjne	r3,#0x23,00115$
   10EC 90 21 05           3405 	mov	dptr,#_hoursAlarm
   10EF E4                 3406 	clr	a
   10F0 F0                 3407 	movx	@dptr,a
   10F1 80 16              3408 	sjmp	00163$
   10F3                    3409 00115$:
                           3410 ;	ProjetoFinal.c:771: else hoursAlarm += 0x01;
   10F3 90 21 05           3411 	mov	dptr,#_hoursAlarm
   10F6 E0                 3412 	movx	a,@dptr
   10F7 FB                 3413 	mov	r3,a
   10F8 90 21 05           3414 	mov	dptr,#_hoursAlarm
   10FB 04                 3415 	inc	a
   10FC F0                 3416 	movx	@dptr,a
   10FD 80 0A              3417 	sjmp	00163$
   10FF                    3418 00121$:
                           3419 ;	ProjetoFinal.c:773: else minAlarm += 0x01;
   10FF 90 21 03           3420 	mov	dptr,#_minAlarm
   1102 E0                 3421 	movx	a,@dptr
   1103 FB                 3422 	mov	r3,a
   1104 90 21 03           3423 	mov	dptr,#_minAlarm
   1107 04                 3424 	inc	a
   1108 F0                 3425 	movx	@dptr,a
   1109                    3426 00163$:
                           3427 ;	ProjetoFinal.c:755: for (i=0;i<qtd_real;i++)
   1109 05*0B              3428 	inc	_i
   110B E4                 3429 	clr	a
   110C B5*0B 02           3430 	cjne	a,_i,00224$
   110F 05*0C              3431 	inc	(_i + 1)
   1111                    3432 00224$:
   1111 02s10r7F           3433 	ljmp	00161$
   1114                    3434 00164$:
                           3435 ;	ProjetoFinal.c:776: qtd_quociente /= 15;
   1114 75*00 0F           3436 	mov	__divuint_PARM_2,#0x0F
   1117 75*01 00           3437 	mov	(__divuint_PARM_2 + 1),#0x00
   111A 85*07 82           3438 	mov	dpl,_qtd_quociente
   111D 85*08 83           3439 	mov	dph,(_qtd_quociente + 1)
   1120 C0 12              3440 	push	ar2
   1122 75 D0 00           3441 	mov	psw,#0x00
   1125 12s00r00           3442 	lcall	__divuint
   1128 75 D0 10           3443 	mov	psw,#0x10
   112B 85 82*07           3444 	mov	_qtd_quociente,dpl
   112E 85 83*08           3445 	mov	(_qtd_quociente + 1),dph
   1131 D0 12              3446 	pop	ar2
                           3447 ;	ProjetoFinal.c:777: for (i=0;i<qtd_quociente;i++)
   1133 E4                 3448 	clr	a
   1134 F5*0B              3449 	mov	_i,a
   1136 F5*0C              3450 	mov	(_i + 1),a
   1138                    3451 00165$:
   1138 C3                 3452 	clr	c
   1139 E5*0B              3453 	mov	a,_i
   113B 95*07              3454 	subb	a,_qtd_quociente
   113D E5*0C              3455 	mov	a,(_i + 1)
   113F 95*08              3456 	subb	a,(_qtd_quociente + 1)
   1141 40 03              3457 	jc	00225$
   1143 02s12r15           3458 	ljmp	00168$
   1146                    3459 00225$:
                           3460 ;	ProjetoFinal.c:779: if (secAlarm % 0x10 == 9 && secAlarm != 0x59)
   1146 90 21 01           3461 	mov	dptr,#_secAlarm
   1149 E0                 3462 	movx	a,@dptr
   114A FB                 3463 	mov	r3,a
   114B 53 13 0F           3464 	anl	ar3,#0x0F
   114E BB 09 20           3465 	cjne	r3,#0x09,00144$
   1151 90 21 01           3466 	mov	dptr,#_secAlarm
   1154 E0                 3467 	movx	a,@dptr
   1155 FB                 3468 	mov	r3,a
   1156 BB 59 02           3469 	cjne	r3,#0x59,00228$
   1159 80 16              3470 	sjmp	00144$
   115B                    3471 00228$:
                           3472 ;	ProjetoFinal.c:781: secAlarm &= 0xF0;
   115B 90 21 01           3473 	mov	dptr,#_secAlarm
   115E E0                 3474 	movx	a,@dptr
   115F 54 F0              3475 	anl	a,#0xF0
   1161 F0                 3476 	movx	@dptr,a
                           3477 ;	ProjetoFinal.c:782: secAlarm += 0x10;
   1162 90 21 01           3478 	mov	dptr,#_secAlarm
   1165 E0                 3479 	movx	a,@dptr
   1166 FB                 3480 	mov	r3,a
   1167 90 21 01           3481 	mov	dptr,#_secAlarm
   116A 74 10              3482 	mov	a,#0x10
   116C 2B                 3483 	add	a,r3
   116D F0                 3484 	movx	@dptr,a
   116E 02s12r0A           3485 	ljmp	00167$
   1171                    3486 00144$:
                           3487 ;	ProjetoFinal.c:784: else if (secAlarm == 0x59)
   1171 90 21 01           3488 	mov	dptr,#_secAlarm
   1174 E0                 3489 	movx	a,@dptr
   1175 FB                 3490 	mov	r3,a
   1176 BB 59 02           3491 	cjne	r3,#0x59,00229$
   1179 80 03              3492 	sjmp	00230$
   117B                    3493 00229$:
   117B 02s12r00           3494 	ljmp	00141$
   117E                    3495 00230$:
                           3496 ;	ProjetoFinal.c:786: secAlarm == 0x00;
   117E 90 21 01           3497 	mov	dptr,#_secAlarm
   1181 E0                 3498 	movx	a,@dptr
                           3499 ;	ProjetoFinal.c:788: if (minAlarm % 0x10 == 9 && minAlarm != 0x59)
   1182 90 21 03           3500 	mov	dptr,#_minAlarm
   1185 E0                 3501 	movx	a,@dptr
   1186 FB                 3502 	mov	r3,a
   1187 53 13 0F           3503 	anl	ar3,#0x0F
   118A BB 09 1F           3504 	cjne	r3,#0x09,00137$
   118D 90 21 03           3505 	mov	dptr,#_minAlarm
   1190 E0                 3506 	movx	a,@dptr
   1191 FB                 3507 	mov	r3,a
   1192 BB 59 02           3508 	cjne	r3,#0x59,00233$
   1195 80 15              3509 	sjmp	00137$
   1197                    3510 00233$:
                           3511 ;	ProjetoFinal.c:790: minAlarm &= 0xF0;
   1197 90 21 03           3512 	mov	dptr,#_minAlarm
   119A E0                 3513 	movx	a,@dptr
   119B 54 F0              3514 	anl	a,#0xF0
   119D F0                 3515 	movx	@dptr,a
                           3516 ;	ProjetoFinal.c:791: minAlarm += 0x10;
   119E 90 21 03           3517 	mov	dptr,#_minAlarm
   11A1 E0                 3518 	movx	a,@dptr
   11A2 FB                 3519 	mov	r3,a
   11A3 90 21 03           3520 	mov	dptr,#_minAlarm
   11A6 74 10              3521 	mov	a,#0x10
   11A8 2B                 3522 	add	a,r3
   11A9 F0                 3523 	movx	@dptr,a
   11AA 80 5E              3524 	sjmp	00167$
   11AC                    3525 00137$:
                           3526 ;	ProjetoFinal.c:793: else if (minAlarm == 0x59)
   11AC 90 21 03           3527 	mov	dptr,#_minAlarm
   11AF E0                 3528 	movx	a,@dptr
   11B0 FB                 3529 	mov	r3,a
   11B1 BB 59 40           3530 	cjne	r3,#0x59,00134$
                           3531 ;	ProjetoFinal.c:795: minAlarm = 0x00;
   11B4 90 21 03           3532 	mov	dptr,#_minAlarm
   11B7 E4                 3533 	clr	a
   11B8 F0                 3534 	movx	@dptr,a
                           3535 ;	ProjetoFinal.c:796: if (hoursAlarm % 0x10 == 9)
   11B9 90 21 05           3536 	mov	dptr,#_hoursAlarm
   11BC E0                 3537 	movx	a,@dptr
   11BD FB                 3538 	mov	r3,a
   11BE 53 13 0F           3539 	anl	ar3,#0x0F
   11C1 BB 09 15           3540 	cjne	r3,#0x09,00131$
                           3541 ;	ProjetoFinal.c:798: hoursAlarm &= 0xF0;
   11C4 90 21 05           3542 	mov	dptr,#_hoursAlarm
   11C7 E0                 3543 	movx	a,@dptr
   11C8 54 F0              3544 	anl	a,#0xF0
   11CA F0                 3545 	movx	@dptr,a
                           3546 ;	ProjetoFinal.c:799: hoursAlarm += 0x10;
   11CB 90 21 05           3547 	mov	dptr,#_hoursAlarm
   11CE E0                 3548 	movx	a,@dptr
   11CF FB                 3549 	mov	r3,a
   11D0 90 21 05           3550 	mov	dptr,#_hoursAlarm
   11D3 74 10              3551 	mov	a,#0x10
   11D5 2B                 3552 	add	a,r3
   11D6 F0                 3553 	movx	@dptr,a
   11D7 80 31              3554 	sjmp	00167$
   11D9                    3555 00131$:
                           3556 ;	ProjetoFinal.c:801: else if (hoursAlarm == 0x23) hoursAlarm = 0x00;
   11D9 90 21 05           3557 	mov	dptr,#_hoursAlarm
   11DC E0                 3558 	movx	a,@dptr
   11DD FB                 3559 	mov	r3,a
   11DE BB 23 07           3560 	cjne	r3,#0x23,00128$
   11E1 90 21 05           3561 	mov	dptr,#_hoursAlarm
   11E4 E4                 3562 	clr	a
   11E5 F0                 3563 	movx	@dptr,a
   11E6 80 22              3564 	sjmp	00167$
   11E8                    3565 00128$:
                           3566 ;	ProjetoFinal.c:802: else hoursAlarm += 0x01;
   11E8 90 21 05           3567 	mov	dptr,#_hoursAlarm
   11EB E0                 3568 	movx	a,@dptr
   11EC FB                 3569 	mov	r3,a
   11ED 90 21 05           3570 	mov	dptr,#_hoursAlarm
   11F0 04                 3571 	inc	a
   11F1 F0                 3572 	movx	@dptr,a
   11F2 80 16              3573 	sjmp	00167$
   11F4                    3574 00134$:
                           3575 ;	ProjetoFinal.c:804: else minAlarm += 0x01;
   11F4 90 21 03           3576 	mov	dptr,#_minAlarm
   11F7 E0                 3577 	movx	a,@dptr
   11F8 FB                 3578 	mov	r3,a
   11F9 90 21 03           3579 	mov	dptr,#_minAlarm
   11FC 04                 3580 	inc	a
   11FD F0                 3581 	movx	@dptr,a
   11FE 80 0A              3582 	sjmp	00167$
   1200                    3583 00141$:
                           3584 ;	ProjetoFinal.c:806: else secAlarm+= 0x01;
   1200 90 21 01           3585 	mov	dptr,#_secAlarm
   1203 E0                 3586 	movx	a,@dptr
   1204 FB                 3587 	mov	r3,a
   1205 90 21 01           3588 	mov	dptr,#_secAlarm
   1208 04                 3589 	inc	a
   1209 F0                 3590 	movx	@dptr,a
   120A                    3591 00167$:
                           3592 ;	ProjetoFinal.c:777: for (i=0;i<qtd_quociente;i++)
   120A 05*0B              3593 	inc	_i
   120C E4                 3594 	clr	a
   120D B5*0B 02           3595 	cjne	a,_i,00240$
   1210 05*0C              3596 	inc	(_i + 1)
   1212                    3597 00240$:
   1212 02s11r38           3598 	ljmp	00165$
   1215                    3599 00168$:
                           3600 ;	ProjetoFinal.c:808: indicador1++;
   1215 05*0D              3601 	inc	_indicador1
   1217 E4                 3602 	clr	a
   1218 B5*0D 27           3603 	cjne	a,_indicador1,00154$
   121B 05*0E              3604 	inc	(_indicador1 + 1)
   121D 80 23              3605 	sjmp	00154$
   121F                    3606 00150$:
                           3607 ;	ProjetoFinal.c:811: else if (indicador1 == 1)
   121F 74 01              3608 	mov	a,#0x01
   1221 B5*0D 06           3609 	cjne	a,_indicador1,00242$
   1224 E4                 3610 	clr	a
   1225 B5*0E 02           3611 	cjne	a,(_indicador1 + 1),00242$
   1228 80 02              3612 	sjmp	00243$
   122A                    3613 00242$:
   122A 80 16              3614 	sjmp	00154$
   122C                    3615 00243$:
                           3616 ;	ProjetoFinal.c:813: desliga_motor();
   122C C0 12              3617 	push	ar2
   122E 75 D0 00           3618 	mov	psw,#0x00
   1231 12s00r03           3619 	lcall	_desliga_motor
   1234 75 D0 10           3620 	mov	psw,#0x10
   1237 D0 12              3621 	pop	ar2
                           3622 ;	ProjetoFinal.c:814: indicador = 0;
                           3623 ;	ProjetoFinal.c:815: indicador1 = 0;
   1239 E4                 3624 	clr	a
   123A F5*09              3625 	mov	_indicador,a
   123C F5*0A              3626 	mov	(_indicador + 1),a
   123E F5*0D              3627 	mov	_indicador1,a
   1240 F5*0E              3628 	mov	(_indicador1 + 1),a
   1242                    3629 00154$:
                           3630 ;	ProjetoFinal.c:817: printDisplay("ALARME!");
   1242 90s00rE8           3631 	mov	dptr,#__str_25
   1245 75 F0 80           3632 	mov	b,#0x80
   1248 C0 12              3633 	push	ar2
   124A 75 D0 00           3634 	mov	psw,#0x00
   124D 12s01r93           3635 	lcall	_printDisplay
   1250 75 D0 10           3636 	mov	psw,#0x10
   1253 D0 12              3637 	pop	ar2
   1255                    3638 00158$:
                           3639 ;	ProjetoFinal.c:819: if ((AUX & 0x10) == 0x10) /*verifica se é interrupção de atualização*/
   1255 53 12 10           3640 	anl	ar2,#0x10
   1258 BA 10 0F           3641 	cjne	r2,#0x10,00169$
                           3642 ;	ProjetoFinal.c:821: mostraDisplay();
   125B 75 D0 00           3643 	mov	psw,#0x00
   125E 12s0Dr9F           3644 	lcall	_mostraDisplay
                           3645 ;	ProjetoFinal.c:822: mostratemperatura();
   1261 75 D0 00           3646 	mov	psw,#0x00
   1264 12s0Fr3F           3647 	lcall	_mostratemperatura
   1267 75 D0 10           3648 	mov	psw,#0x10
   126A                    3649 00169$:
   126A D0 D0              3650 	pop	psw
   126C D0 01              3651 	pop	(0+1)
   126E D0 00              3652 	pop	(0+0)
   1270 D0 07              3653 	pop	(0+7)
   1272 D0 06              3654 	pop	(0+6)
   1274 D0 05              3655 	pop	(0+5)
   1276 D0 04              3656 	pop	(0+4)
   1278 D0 03              3657 	pop	(0+3)
   127A D0 02              3658 	pop	(0+2)
   127C D0 83              3659 	pop	dph
   127E D0 82              3660 	pop	dpl
   1280 D0 F0              3661 	pop	b
   1282 D0 E0              3662 	pop	acc
   1284 D0*00              3663 	pop	bits
   1286 32                 3664 	reti
                           3665 ;------------------------------------------------------------
                           3666 ;Allocation info for local variables in function 'main'
                           3667 ;------------------------------------------------------------
                           3668 ;tecla                     Allocated to registers r2 
                           3669 ;------------------------------------------------------------
                           3670 ;	ProjetoFinal.c:828: void main(void){
                           3671 ;	-----------------------------------------
                           3672 ;	 function main
                           3673 ;	-----------------------------------------
   1287                    3674 _main:
                    0002   3675 	ar2 = 0x02
                    0003   3676 	ar3 = 0x03
                    0004   3677 	ar4 = 0x04
                    0005   3678 	ar5 = 0x05
                    0006   3679 	ar6 = 0x06
                    0007   3680 	ar7 = 0x07
                    0000   3681 	ar0 = 0x00
                    0001   3682 	ar1 = 0x01
                           3683 ;	ProjetoFinal.c:830: progrdisplay(); /* programa display */
   1287 12s01rC2           3684 	lcall	_progrdisplay
                           3685 ;	ProjetoFinal.c:831: line(1);
   128A 90 00 01           3686 	mov	dptr,#0x0001
   128D 12s01rDA           3687 	lcall	_line
                           3688 ;	ProjetoFinal.c:832: cleardisplay();
   1290 12s01rD4           3689 	lcall	_cleardisplay
                           3690 ;	ProjetoFinal.c:833: IE = 0x81;
   1293 75 A8 81           3691 	mov	_IE,#0x81
                           3692 ;	ProjetoFinal.c:835: adc_data = 0x00;
   1296 90 22 00           3693 	mov	dptr,#_adc_data
   1299 E4                 3694 	clr	a
   129A F0                 3695 	movx	@dptr,a
                           3696 ;	ProjetoFinal.c:836: initTempoReal();
   129B 12s01rFE           3697 	lcall	_initTempoReal
                           3698 ;	ProjetoFinal.c:838: T0 = 1;
   129E D2 B4              3699 	setb	_T0
                           3700 ;	ProjetoFinal.c:839: T1 = 1;
   12A0 D2 B5              3701 	setb	_T1
                           3702 ;	ProjetoFinal.c:843: while (1) {
   12A2                    3703 00116$:
                           3704 ;	ProjetoFinal.c:844: cleardisplay();
   12A2 12s01rD4           3705 	lcall	_cleardisplay
                           3706 ;	ProjetoFinal.c:845: printDisplay("Escolha:");
   12A5 90s00rF0           3707 	mov	dptr,#__str_26
   12A8 75 F0 80           3708 	mov	b,#0x80
   12AB 12s01r93           3709 	lcall	_printDisplay
                           3710 ;	ProjetoFinal.c:846: tecla = NovaTeclaKeyDown();
   12AE 12s00rB6           3711 	lcall	_NovaTeclaKeyDown
   12B1 AA 82              3712 	mov	r2,dpl
                           3713 ;	ProjetoFinal.c:847: if (tecla == '0') prog();
   12B3 BA 30 07           3714 	cjne	r2,#0x30,00102$
   12B6 C0 02              3715 	push	ar2
   12B8 12s02r12           3716 	lcall	_prog
   12BB D0 02              3717 	pop	ar2
   12BD                    3718 00102$:
                           3719 ;	ProjetoFinal.c:848: if (tecla == '1') progAlarm();
   12BD BA 31 07           3720 	cjne	r2,#0x31,00104$
   12C0 C0 02              3721 	push	ar2
   12C2 12s08r8F           3722 	lcall	_progAlarm
   12C5 D0 02              3723 	pop	ar2
   12C7                    3724 00104$:
                           3725 ;	ProjetoFinal.c:849: if (tecla == '2') liga_motor();
   12C7 BA 32 07           3726 	cjne	r2,#0x32,00106$
   12CA C0 02              3727 	push	ar2
   12CC 12s00r00           3728 	lcall	_liga_motor
   12CF D0 02              3729 	pop	ar2
   12D1                    3730 00106$:
                           3731 ;	ProjetoFinal.c:850: if (tecla == '3') desliga_motor();
   12D1 BA 33 07           3732 	cjne	r2,#0x33,00108$
   12D4 C0 02              3733 	push	ar2
   12D6 12s00r03           3734 	lcall	_desliga_motor
   12D9 D0 02              3735 	pop	ar2
   12DB                    3736 00108$:
                           3737 ;	ProjetoFinal.c:851: if (tecla == '4') liga_aquecedor();
   12DB BA 34 07           3738 	cjne	r2,#0x34,00110$
   12DE C0 02              3739 	push	ar2
   12E0 12s00r06           3740 	lcall	_liga_aquecedor
   12E3 D0 02              3741 	pop	ar2
   12E5                    3742 00110$:
                           3743 ;	ProjetoFinal.c:852: if (tecla == '5') desliga_aquecedor();
   12E5 BA 35 07           3744 	cjne	r2,#0x35,00112$
   12E8 C0 02              3745 	push	ar2
   12EA 12s00r09           3746 	lcall	_desliga_aquecedor
   12ED D0 02              3747 	pop	ar2
   12EF                    3748 00112$:
                           3749 ;	ProjetoFinal.c:853: if (tecla == '7') mostraDisplay();
   12EF BA 37 B0           3750 	cjne	r2,#0x37,00116$
   12F2 12s0Dr9F           3751 	lcall	_mostraDisplay
   12F5 80 AB              3752 	sjmp	00116$
                           3753 	.area CSEG    (CODE)
                           3754 	.area CONST   (CODE)
   0000                    3755 __str_0:
   0000 41 6E 6F 28 30 30  3756 	.ascii "Ano(00-99): "
        2D 39 39 29 3A 20
   000C 00                 3757 	.db 0x00
   000D                    3758 __str_1:
   000D 4D 65 73 28 30 30  3759 	.ascii "Mes(00-12): "
        2D 31 32 29 3A 20
   0019 00                 3760 	.db 0x00
   001A                    3761 __str_2:
   001A 44 69 61 28 30 30  3762 	.ascii "Dia(00-31): "
        2D 33 31 29 3A 20
   0026 00                 3763 	.db 0x00
   0027                    3764 __str_3:
   0027 44 69 61 53 65 6D  3765 	.ascii "DiaSem(01-07):"
        28 30 31 2D 30 37
        29 3A
   0035 00                 3766 	.db 0x00
   0036                    3767 __str_4:
   0036 48 6F 72 61 28 30  3768 	.ascii "Hora(00-23): "
        30 2D 32 33 29 3A
        20
   0043 00                 3769 	.db 0x00
   0044                    3770 __str_5:
   0044 4D 69 6E 28 30 30  3771 	.ascii "Min(00-59): "
        2D 35 39 29 3A 20
   0050 00                 3772 	.db 0x00
   0051                    3773 __str_6:
   0051 53 65 67 28 30 30  3774 	.ascii "Seg(00-59): "
        2D 35 39 29 3A 20
   005D 00                 3775 	.db 0x00
   005E                    3776 __str_7:
   005E 51 75 61 6E 74 6F  3777 	.ascii "Quantos ml?"
        73 20 6D 6C 3F
   0069 00                 3778 	.db 0x00
   006A                    3779 __str_8:
   006A 28 30 30 30 30 2D  3780 	.ascii "(0000-9999):"
        39 39 39 39 29 3A
   0076 00                 3781 	.db 0x00
   0077                    3782 __str_9:
   0077 48 6F 72 61 41 6C  3783 	.ascii "HoraAl(00-23):"
        28 30 30 2D 32 33
        29 3A
   0085 00                 3784 	.db 0x00
   0086                    3785 __str_10:
   0086 4D 69 6E 41 6C 28  3786 	.ascii "MinAl(00-59): "
        30 30 2D 35 39 29
        3A 20
   0094 00                 3787 	.db 0x00
   0095                    3788 __str_11:
   0095 53 65 67 41 6C 28  3789 	.ascii "SegAl(00-59): "
        30 30 2D 35 39 29
        3A 20
   00A3 00                 3790 	.db 0x00
   00A4                    3791 __str_12:
   00A4 41 74 69 76 61 72  3792 	.ascii "Ativar alarme?"
        20 61 6C 61 72 6D
        65 3F
   00B2 00                 3793 	.db 0x00
   00B3                    3794 __str_13:
   00B3 30 3D 53 69 6D 2F  3795 	.ascii "0=Sim/1=N"
        31 3D 4E
   00BC E3                 3796 	.db 0xE3
   00BD 6F                 3797 	.ascii "o"
   00BE 00                 3798 	.db 0x00
   00BF                    3799 __str_14:
   00BF 50 72 6F 6E 74 6F  3800 	.ascii "Pronto"
   00C5 00                 3801 	.db 0x00
   00C6                    3802 __str_15:
   00C6 2F                 3803 	.ascii "/"
   00C7 00                 3804 	.db 0x00
   00C8                    3805 __str_16:
   00C8 20                 3806 	.ascii " "
   00C9 00                 3807 	.db 0x00
   00CA                    3808 __str_17:
   00CA 44 4F 4D           3809 	.ascii "DOM"
   00CD 00                 3810 	.db 0x00
   00CE                    3811 __str_18:
   00CE 53 45 47           3812 	.ascii "SEG"
   00D1 00                 3813 	.db 0x00
   00D2                    3814 __str_19:
   00D2 54 45 52           3815 	.ascii "TER"
   00D5 00                 3816 	.db 0x00
   00D6                    3817 __str_20:
   00D6 51 55 41           3818 	.ascii "QUA"
   00D9 00                 3819 	.db 0x00
   00DA                    3820 __str_21:
   00DA 51 55 49           3821 	.ascii "QUI"
   00DD 00                 3822 	.db 0x00
   00DE                    3823 __str_22:
   00DE 53 45 58           3824 	.ascii "SEX"
   00E1 00                 3825 	.db 0x00
   00E2                    3826 __str_23:
   00E2 53 41 42           3827 	.ascii "SAB"
   00E5 00                 3828 	.db 0x00
   00E6                    3829 __str_24:
   00E6 3A                 3830 	.ascii ":"
   00E7 00                 3831 	.db 0x00
   00E8                    3832 __str_25:
   00E8 41 4C 41 52 4D 45  3833 	.ascii "ALARME!"
        21
   00EF 00                 3834 	.db 0x00
   00F0                    3835 __str_26:
   00F0 45 73 63 6F 6C 68  3836 	.ascii "Escolha:"
        61 3A
   00F8 00                 3837 	.db 0x00
                           3838 	.area XINIT   (CODE)
                           3839 	.area CABS    (ABS,CODE)
